; ModuleID = 'Z:/Documents/workspace/zysh101/src/tcl/nco/zybe/.autopilot/db/a.o.3.bc'
target datalayout = "e-p:32:32:32-i1:8:8-i8:8:8-i16:16:16-i32:32:32-i64:64:64-f32:32:32-f64:64:64-f80:128:128-v64:64:64-v128:128:128-a0:0:64-f80:32:32-n8:16:32-S32"
target triple = "i686-pc-mingw32"

@sinarray_V = internal unnamed_addr constant [1024 x i22] [i22 6435, i22 12871, i22 19306, i22 25742, i22 32177, i22 38612, i22 45048, i22 51483, i22 57918, i22 64353, i22 70787, i22 77222, i22 83656, i22 90090, i22 96524, i22 102958, i22 109391, i22 115825, i22 122258, i22 128690, i22 135123, i22 141555, i22 147986, i22 154418, i22 160849, i22 167279, i22 173710, i22 180140, i22 186569, i22 192998, i22 199426, i22 205854, i22 212282, i22 218709, i22 225136, i22 231562, i22 237987, i22 244412, i22 250836, i22 257260, i22 263683, i22 270106, i22 276528, i22 282949, i22 289369, i22 295789, i22 302208, i22 308627, i22 315045, i22 321462, i22 327878, i22 334293, i22 340708, i22 347122, i22 353535, i22 359947, i22 366359, i22 372769, i22 379179, i22 385587, i22 391995, i22 398402, i22 404808, i22 411213, i22 417617, i22 424020, i22 430422, i22 436824, i22 443224, i22 449623, i22 456021, i22 462417, i22 468813, i22 475208, i22 481601, i22 487994, i22 494385, i22 500775, i22 507164, i22 513552, i22 519938, i22 526324, i22 532708, i22 539091, i22 545472, i22 551852, i22 558231, i22 564609, i22 570985, i22 577360, i22 583734, i22 590106, i22 596477, i22 602846, i22 609214, i22 615581, i22 621946, i22 628310, i22 634672, i22 641033, i22 647392, i22 653749, i22 660106, i22 666460, i22 672813, i22 679165, i22 685514, i22 691863, i22 698209, i22 704554, i22 710897, i22 717239, i22 723579, i22 729917, i22 736254, i22 742588, i22 748921, i22 755253, i22 761582, i22 767910, i22 774236, i22 780560, i22 786882, i22 793202, i22 799521, i22 805837, i22 812152, i22 818465, i22 824776, i22 831085, i22 837392, i22 843697, i22 850000, i22 856301, i22 862600, i22 868897, i22 875192, i22 881484, i22 887775, i22 894064, i22 900350, i22 906635, i22 912917, i22 919197, i22 925475, i22 931751, i22 938025, i22 944296, i22 950566, i22 956833, i22 963097, i22 969360, i22 975620, i22 981878, i22 988133, i22 994387, i22 1000638, i22 1006886, i22 1013132, i22 1019376, i22 1025617, i22 1031856, i22 1038093, i22 1044327, i22 1050559, i22 1056788, i22 1063015, i22 1069239, i22 1075460, i22 1081680, i22 1087896, i22 1094110, i22 1100322, i22 1106531, i22 1112737, i22 1118940, i22 1125141, i22 1131340, i22 1137535, i22 1143728, i22 1149919, i22 1156106, i22 1162291, i22 1168473, i22 1174653, i22 1180829, i22 1187003, i22 1193174, i22 1199343, i22 1205508, i22 1211671, i22 1217830, i22 1223987, i22 1230141, i22 1236292, i22 1242440, i22 1248586, i22 1254728, i22 1260867, i22 1267004, i22 1273137, i22 1279268, i22 1285395, i22 1291519, i22 1297641, i22 1303759, i22 1309874, i22 1315986, i22 1322095, i22 1328201, i22 1334304, i22 1340404, i22 1346500, i22 1352594, i22 1358684, i22 1364771, i22 1370854, i22 1376935, i22 1383012, i22 1389086, i22 1395157, i22 1401224, i22 1407288, i22 1413349, i22 1419407, i22 1425461, i22 1431512, i22 1437559, i22 1443603, i22 1449644, i22 1455681, i22 1461715, i22 1467745, i22 1473772, i22 1479796, i22 1485816, i22 1491832, i22 1497845, i22 1503855, i22 1509861, i22 1515863, i22 1521862, i22 1527857, i22 1533848, i22 1539836, i22 1545821, i22 1551801, i22 1557778, i22 1563752, i22 1569722, i22 1575688, i22 1581650, i22 1587608, i22 1593563, i22 1599514, i22 1605462, i22 1611405, i22 1617345, i22 1623281, i22 1629213, i22 1635141, i22 1641066, i22 1646986, i22 1652903, i22 1658816, i22 1664725, i22 1670630, i22 1676531, i22 1682428, i22 1688321, i22 1694210, i22 1700095, i22 1705977, i22 1711854, i22 1717727, i22 1723596, i22 1729461, i22 1735322, i22 1741179, i22 1747032, i22 1752880, i22 1758725, i22 1764565, i22 1770401, i22 1776234, i22 1782061, i22 1787885, i22 1793705, i22 1799520, i22 1805331, i22 1811138, i22 1816940, i22 1822738, i22 1828532, i22 1834322, i22 1840107, i22 1845888, i22 1851665, i22 1857437, i22 1863205, i22 1868969, i22 1874728, i22 1880482, i22 1886233, i22 1891979, i22 1897720, i22 1903457, i22 1909189, i22 1914917, i22 1920641, i22 1926360, i22 1932074, i22 1937784, i22 1943489, i22 1949190, i22 1954886, i22 1960577, i22 1966264, i22 1971947, i22 1977624, i22 1983297, i22 1988965, i22 1994629, i22 2000288, i22 2005942, i22 2011592, i22 2017236, i22 2022876, i22 2028512, i22 2034142, i22 2039768, i22 2045389, i22 2051005, i22 2056616, i22 2062222, i22 2067824, i22 2073420, i22 2079012, i22 2084599, i22 2090181, i22 2095758, i22 -2092974, i22 -2087407, i22 -2081844, i22 -2076287, i22 -2070735, i22 -2065188, i22 -2059646, i22 -2054108, i22 -2048576, i22 -2043049, i22 -2037527, i22 -2032010, i22 -2026498, i22 -2020991, i22 -2015490, i22 -2009993, i22 -2004502, i22 -1999015, i22 -1993534, i22 -1988058, i22 -1982588, i22 -1977122, i22 -1971662, i22 -1966207, i22 -1960757, i22 -1955313, i22 -1949873, i22 -1944439, i22 -1939011, i22 -1933587, i22 -1928169, i22 -1922757, i22 -1917349, i22 -1911947, i22 -1906551, i22 -1901159, i22 -1895773, i22 -1890393, i22 -1885018, i22 -1879648, i22 -1874284, i22 -1868926, i22 -1863572, i22 -1858225, i22 -1852883, i22 -1847546, i22 -1842215, i22 -1836889, i22 -1831569, i22 -1826254, i22 -1820945, i22 -1815642, i22 -1810344, i22 -1805052, i22 -1799766, i22 -1794485, i22 -1789210, i22 -1783940, i22 -1778676, i22 -1773418, i22 -1768165, i22 -1762919, i22 -1757678, i22 -1752442, i22 -1747213, i22 -1741989, i22 -1736771, i22 -1731558, i22 -1726352, i22 -1721151, i22 -1715956, i22 -1710767, i22 -1705584, i22 -1700407, i22 -1695236, i22 -1690070, i22 -1684910, i22 -1679757, i22 -1674609, i22 -1669467, i22 -1664331, i22 -1659201, i22 -1654077, i22 -1648959, i22 -1643847, i22 -1638741, i22 -1633641, i22 -1628547, i22 -1623459, i22 -1618377, i22 -1613301, i22 -1608231, i22 -1603168, i22 -1598110, i22 -1593059, i22 -1588013, i22 -1582974, i22 -1577941, i22 -1572914, i22 -1567893, i22 -1562879, i22 -1557871, i22 -1552868, i22 -1547872, i22 -1542883, i22 -1537899, i22 -1532922, i22 -1527951, i22 -1522987, i22 -1518028, i22 -1513076, i22 -1508130, i22 -1503191, i22 -1498258, i22 -1493331, i22 -1488411, i22 -1483497, i22 -1478589, i22 -1473688, i22 -1468793, i22 -1463905, i22 -1459023, i22 -1454147, i22 -1449278, i22 -1444415, i22 -1439559, i22 -1434709, i22 -1429866, i22 -1425030, i22 -1420199, i22 -1415376, i22 -1410559, i22 -1405748, i22 -1400944, i22 -1396147, i22 -1391356, i22 -1386572, i22 -1381794, i22 -1377023, i22 -1372259, i22 -1367501, i22 -1362750, i22 -1358006, i22 -1353268, i22 -1348537, i22 -1343813, i22 -1339095, i22 -1334384, i22 -1329680, i22 -1324983, i22 -1320292, i22 -1315608, i22 -1310931, i22 -1306261, i22 -1301597, i22 -1296941, i22 -1292291, i22 -1287648, i22 -1283012, i22 -1278382, i22 -1273760, i22 -1269144, i22 -1264535, i22 -1259934, i22 -1255339, i22 -1250751, i22 -1246170, i22 -1241596, i22 -1237028, i22 -1232468, i22 -1227915, i22 -1223369, i22 -1218829, i22 -1214297, i22 -1209772, i22 -1205254, i22 -1200743, i22 -1196238, i22 -1191741, i22 -1187251, i22 -1182768, i22 -1178293, i22 -1173824, i22 -1169362, i22 -1164908, i22 -1160460, i22 -1156020, i22 -1151587, i22 -1147161, i22 -1142742, i22 -1138331, i22 -1133926, i22 -1129529, i22 -1125139, i22 -1120757, i22 -1116381, i22 -1112013, i22 -1107652, i22 -1103298, i22 -1098952, i22 -1094613, i22 -1090281, i22 -1085956, i22 -1081639, i22 -1077329, i22 -1073027, i22 -1068731, i22 -1064444, i22 -1060163, i22 -1055890, i22 -1051624, i22 -1047366, i22 -1043115, i22 -1038872, i22 -1034636, i22 -1030407, i22 -1026186, i22 -1021972, i22 -1017766, i22 -1013567, i22 -1009376, i22 -1005192, i22 -1001016, i22 -996847, i22 -992686, i22 -988532, i22 -984386, i22 -980247, i22 -976116, i22 -971993, i22 -967877, i22 -963769, i22 -959668, i22 -955575, i22 -951490, i22 -947412, i22 -943342, i22 -939279, i22 -935224, i22 -931177, i22 -927138, i22 -923106, i22 -919082, i22 -915066, i22 -911057, i22 -907056, i22 -903063, i22 -899077, i22 -895100, i22 -891130, i22 -887168, i22 -883213, i22 -879267, i22 -875328, i22 -871397, i22 -867474, i22 -863559, i22 -859651, i22 -855752, i22 -851860, i22 -847976, i22 -844100, i22 -840232, i22 -836372, i22 -832520, i22 -828675, i22 -824839, i22 -821010, i22 -817190, i22 -813377, i22 -809573, i22 -805776, i22 -801987, i22 -798206, i22 -794434, i22 -790669, i22 -786912, i22 -783164, i22 -779423, i22 -775690, i22 -771966, i22 -768249, i22 -764541, i22 -760840, i22 -757148, i22 -753464, i22 -749788, i22 -746120, i22 -742460, i22 -738808, i22 -735165, i22 -731529, i22 -727902, i22 -724283, i22 -720672, i22 -717069, i22 -713474, i22 -709888, i22 -706310, i22 -702740, i22 -699178, i22 -695624, i22 -692079, i22 -688542, i22 -685013, i22 -681492, i22 -677980, i22 -674476, i22 -670980, i22 -667493, i22 -664014, i22 -660543, i22 -657081, i22 -653626, i22 -650181, i22 -646743, i22 -643314, i22 -639893, i22 -636481, i22 -633077, i22 -629681, i22 -626294, i22 -622915, i22 -619544, i22 -616182, i22 -612829, i22 -609484, i22 -606147, i22 -602818, i22 -599499, i22 -596187, i22 -592884, i22 -589590, i22 -586304, i22 -583027, i22 -579758, i22 -576497, i22 -573245, i22 -570002, i22 -566767, i22 -563541, i22 -560323, i22 -557114, i22 -553913, i22 -550721, i22 -547537, i22 -544362, i22 -541196, i22 -538038, i22 -534889, i22 -531749, i22 -528617, i22 -525494, i22 -522379, i22 -519273, i22 -516176, i22 -513087, i22 -510007, i22 -506936, i22 -503873, i22 -500819, i22 -497774, i22 -494737, i22 -491709, i22 -488690, i22 -485680, i22 -482678, i22 -479685, i22 -476701, i22 -473726, i22 -470759, i22 -467801, i22 -464852, i22 -461912, i22 -458980, i22 -456057, i22 -453143, i22 -450238, i22 -447342, i22 -444454, i22 -441576, i22 -438706, i22 -435845, i22 -432992, i22 -430149, i22 -427315, i22 -424489, i22 -421672, i22 -418864, i22 -416066, i22 -413275, i22 -410494, i22 -407722, i22 -404959, i22 -402204, i22 -399459, i22 -396722, i22 -393995, i22 -391276, i22 -388566, i22 -385866, i22 -383174, i22 -380491, i22 -377817, i22 -375152, i22 -372496, i22 -369850, i22 -367212, i22 -364583, i22 -361963, i22 -359352, i22 -356750, i22 -354158, i22 -351574, i22 -348999, i22 -346434, i22 -343877, i22 -341330, i22 -338791, i22 -336262, i22 -333742, i22 -331231, i22 -328728, i22 -326236, i22 -323752, i22 -321277, i22 -318811, i22 -316355, i22 -313907, i22 -311469, i22 -309040, i22 -306620, i22 -304209, i22 -301808, i22 -299415, i22 -297032, i22 -294658, i22 -292293, i22 -289937, i22 -287590, i22 -285253, i22 -282925, i22 -280606, i22 -278296, i22 -275996, i22 -273704, i22 -271422, i22 -269149, i22 -266886, i22 -264631, i22 -262386, i22 -260150, i22 -257924, i22 -255707, i22 -253499, i22 -251300, i22 -249110, i22 -246930, i22 -244759, i22 -242598, i22 -240445, i22 -238302, i22 -236169, i22 -234044, i22 -231929, i22 -229823, i22 -227727, i22 -225640, i22 -223562, i22 -221494, i22 -219435, i22 -217385, i22 -215345, i22 -213314, i22 -211293, i22 -209281, i22 -207278, i22 -205284, i22 -203300, i22 -201326, i22 -199361, i22 -197405, i22 -195458, i22 -193521, i22 -191594, i22 -189676, i22 -187767, i22 -185868, i22 -183978, i22 -182097, i22 -180227, i22 -178365, i22 -176513, i22 -174670, i22 -172837, i22 -171014, i22 -169199, i22 -167395, i22 -165600, i22 -163814, i22 -162038, i22 -160271, i22 -158514, i22 -156766, i22 -155028, i22 -153299, i22 -151580, i22 -149870, i22 -148170, i22 -146479, i22 -144798, i22 -143126, i22 -141464, i22 -139812, i22 -138169, i22 -136535, i22 -134911, i22 -133297, i22 -131692, i22 -130097, i22 -128511, i22 -126935, i22 -125369, i22 -123812, i22 -122265, i22 -120727, i22 -119199, i22 -117680, i22 -116171, i22 -114672, i22 -113182, i22 -111702, i22 -110232, i22 -108771, i22 -107319, i22 -105878, i22 -104446, i22 -103023, i22 -101610, i22 -100207, i22 -98814, i22 -97430, i22 -96056, i22 -94691, i22 -93336, i22 -91991, i22 -90655, i22 -89329, i22 -88013, i22 -86706, i22 -85409, i22 -84122, i22 -82845, i22 -81577, i22 -80318, i22 -79070, i22 -77831, i22 -76602, i22 -75382, i22 -74173, i22 -72973, i22 -71782, i22 -70601, i22 -69431, i22 -68269, i22 -67118, i22 -65976, i22 -64844, i22 -63721, i22 -62609, i22 -61506, i22 -60413, i22 -59329, i22 -58255, i22 -57191, i22 -56137, i22 -55093, i22 -54058, i22 -53033, i22 -52018, i22 -51012, i22 -50016, i22 -49030, i22 -48054, i22 -47088, i22 -46131, i22 -45184, i22 -44247, i22 -43319, i22 -42402, i22 -41494, i22 -40596, i22 -39707, i22 -38829, i22 -37960, i22 -37101, i22 -36252, i22 -35412, i22 -34583, i22 -33763, i22 -32953, i22 -32153, i22 -31362, i22 -30582, i22 -29811, i22 -29050, i22 -28299, i22 -27557, i22 -26826, i22 -26104, i22 -25392, i22 -24690, i22 -23997, i22 -23315, i22 -22642, i22 -21979, i22 -21326, i22 -20683, i22 -20050, i22 -19426, i22 -18812, i22 -18208, i22 -17614, i22 -17030, i22 -16456, i22 -15891, i22 -15336, i22 -14791, i22 -14256, i22 -13731, i22 -13216, i22 -12710, i22 -12214, i22 -11729, i22 -11253, i22 -10786, i22 -10330, i22 -9884, i22 -9447, i22 -9020, i22 -8603, i22 -8196, i22 -7799, i22 -7412, i22 -7034, i22 -6667, i22 -6309, i22 -5961, i22 -5623, i22 -5295, i22 -4977, i22 -4668, i22 -4369, i22 -4081, i22 -3802, i22 -3533, i22 -3274, i22 -3024, i22 -2785, i22 -2556, i22 -2336, i22 -2126, i22 -1926, i22 -1736, i22 -1556, i22 -1386, i22 -1225, i22 -1075, i22 -934, i22 -803, i22 -682, i22 -571, i22 -470, i22 -378, i22 -297, i22 -225, i22 -164, i22 -112, i22 -70, i22 -38, i22 -16, i22 -3, i22 -1] ; [#uses=1 type=[1024 x i22]*]
@nco_str = internal unnamed_addr constant [4 x i8] c"nco\00" ; [#uses=1 type=[4 x i8]*]
@llvm_global_ctors_1 = appending global [1 x void ()*] [void ()* @_GLOBAL__I_a] ; [#uses=0 type=[1 x void ()*]*]
@llvm_global_ctors_0 = appending global [1 x i32] [i32 65535] ; [#uses=0 type=[1 x i32]*]
@p_str7 = private unnamed_addr constant [5 x i8] c"bram\00", align 1 ; [#uses=1 type=[5 x i8]*]
@p_str6 = private unnamed_addr constant [12 x i8] c"RAM_1P_BRAM\00", align 1 ; [#uses=1 type=[12 x i8]*]
@p_str5 = private unnamed_addr constant [5 x i8] c"both\00", align 1 ; [#uses=2 type=[5 x i8]*]
@p_str4 = private unnamed_addr constant [5 x i8] c"axis\00", align 1 ; [#uses=2 type=[5 x i8]*]
@p_str2 = private unnamed_addr constant [1 x i8] zeroinitializer, align 1 ; [#uses=29 type=[1 x i8]*]
@p_str = private unnamed_addr constant [13 x i8] c"ap_ctrl_none\00", align 1 ; [#uses=1 type=[13 x i8]*]

; [#uses=0]
define void @nco(i32* %phasein_V, i32* %dataout_V, [1024 x i32]* %params_V) {
_ZNK13ap_fixed_baseILi24ELi12ELb0EL9ap_q_mode5EL9ap_o_mode3ELi0EE6to_intEv.exit:
  call void (...)* @_ssdm_op_SpecBitsMap(i32* %phasein_V), !map !69
  call void (...)* @_ssdm_op_SpecBitsMap(i32* %dataout_V), !map !79
  call void (...)* @_ssdm_op_SpecBitsMap([1024 x i32]* %params_V), !map !89
  call void (...)* @_ssdm_op_SpecTopModule([4 x i8]* @nco_str) nounwind
  call void @llvm.dbg.value(metadata !{i32* %phasein_V}, i64 0, metadata !95), !dbg !2939 ; [debug line = 7:25] [debug variable = phasein.V]
  call void @llvm.dbg.value(metadata !{i32* %dataout_V}, i64 0, metadata !2940), !dbg !2964 ; [debug line = 7:48] [debug variable = dataout.V]
  call void @llvm.dbg.value(metadata !{[1024 x i32]* %params_V}, i64 0, metadata !2965), !dbg !2976 ; [debug line = 7:64] [debug variable = params.V]
  call void (...)* @_ssdm_op_SpecInterface(i32 0, [13 x i8]* @p_str, i32 0, i32 0, [1 x i8]* @p_str2, i32 0, i32 0, [1 x i8]* @p_str2, [1 x i8]* @p_str2, [1 x i8]* @p_str2, i32 0, i32 0, i32 0, i32 0, [1 x i8]* @p_str2, [1 x i8]* @p_str2) nounwind, !dbg !2977 ; [debug line = 9:1]
  call void (...)* @_ssdm_op_SpecInterface(i32* %phasein_V, [5 x i8]* @p_str4, i32 1, i32 1, [5 x i8]* @p_str5, i32 0, i32 0, [1 x i8]* @p_str2, [1 x i8]* @p_str2, [1 x i8]* @p_str2, i32 0, i32 0, i32 0, i32 0, [1 x i8]* @p_str2, [1 x i8]* @p_str2) nounwind
  call void (...)* @_ssdm_op_SpecInterface(i32* %dataout_V, [5 x i8]* @p_str4, i32 1, i32 1, [5 x i8]* @p_str5, i32 0, i32 0, [1 x i8]* @p_str2, [1 x i8]* @p_str2, [1 x i8]* @p_str2, i32 0, i32 0, i32 0, i32 0, [1 x i8]* @p_str2, [1 x i8]* @p_str2) nounwind
  call void (...)* @_ssdm_op_SpecMemCore([1024 x i32]* %params_V, [1 x i8]* @p_str2, [12 x i8]* @p_str6, [1 x i8]* @p_str2, i32 -1, [1 x i8]* @p_str2, [1 x i8]* @p_str2, [1 x i8]* @p_str2, [1 x i8]* @p_str2, [1 x i8]* @p_str2)
  call void (...)* @_ssdm_op_SpecInterface([1024 x i32]* %params_V, [5 x i8]* @p_str7, i32 0, i32 0, [1 x i8]* @p_str2, i32 0, i32 0, [1 x i8]* @p_str2, [1 x i8]* @p_str2, [1 x i8]* @p_str2, i32 0, i32 0, i32 0, i32 0, [1 x i8]* @p_str2, [1 x i8]* @p_str2) nounwind
  %tmp29 = call i32 @_ssdm_op_Read.axis.volatile.i32P(i32* %phasein_V) ; [#uses=2 type=i32]
  call void @llvm.dbg.value(metadata !{i32 %tmp29}, i64 0, metadata !2979), !dbg !2986 ; [debug line = 130:22@17:14] [debug variable = tmp29]
  %tmp_cast = call i10 @_ssdm_op_PartSelect.i10.i32.i32.i32(i32 %tmp29, i32 12, i32 21), !dbg !2988 ; [#uses=1 type=i10] [debug line = 20:20]
  %tmp_1_cast = zext i10 %tmp_cast to i32, !dbg !2988 ; [#uses=1 type=i32] [debug line = 20:20]
  %sinarray_V_addr = getelementptr [1024 x i22]* @sinarray_V, i32 0, i32 %tmp_1_cast, !dbg !2989 ; [#uses=1 type=i22*] [debug line = 386:9@20:20]
  %tmp_data_V = load i22* %sinarray_V_addr, align 4, !dbg !2989 ; [#uses=1 type=i22] [debug line = 386:9@20:20]
  %tmp_data_V_cast = zext i22 %tmp_data_V to i24, !dbg !2989 ; [#uses=1 type=i24] [debug line = 386:9@20:20]
  call void @llvm.dbg.value(metadata !{i22 %tmp_data_V}, i64 0, metadata !2992), !dbg !2996 ; [debug line = 145:31@23:2] [debug variable = tmp.data.V]
  %tmp_2 = call i7 @_ssdm_op_PartSelect.i7.i32.i32.i32(i32 %tmp29, i32 24, i32 30), !dbg !2996 ; [#uses=1 type=i7] [debug line = 145:31@23:2]
  %tmp_121 = call i32 @_ssdm_op_BitConcatenate.i32.i1.i7.i24(i1 false, i7 %tmp_2, i24 %tmp_data_V_cast), !dbg !2996 ; [#uses=1 type=i32] [debug line = 145:31@23:2]
  call void @llvm.dbg.value(metadata !{i32 %tmp_121}, i64 0, metadata !2998), !dbg !2996 ; [debug line = 145:31@23:2] [debug variable = tmp.121]
  call void @_ssdm_op_Write.axis.volatile.i32P(i32* %dataout_V, i32 %tmp_121)
  ret void, !dbg !3001                            ; [debug line = 24:1]
}

; [#uses=2]
declare i32 @llvm.part.select.i32(i32, i32, i32) nounwind readnone

; [#uses=6]
declare void @llvm.dbg.value(metadata, i64, metadata) nounwind readnone

; [#uses=1]
define weak void @_ssdm_op_Write.axis.volatile.i32P(i32*, i32) {
entry:
  store i32 %1, i32* %0
  ret void
}

; [#uses=1]
define weak void @_ssdm_op_SpecTopModule(...) {
entry:
  ret void
}

; [#uses=1]
define weak void @_ssdm_op_SpecMemCore(...) {
entry:
  ret void
}

; [#uses=4]
define weak void @_ssdm_op_SpecInterface(...) nounwind {
entry:
  ret void
}

; [#uses=3]
define weak void @_ssdm_op_SpecBitsMap(...) {
entry:
  ret void
}

; [#uses=1]
define weak i32 @_ssdm_op_Read.axis.volatile.i32P(i32*) {
entry:
  %empty = load i32* %0                           ; [#uses=1 type=i32]
  ret i32 %empty
}

; [#uses=1]
define weak i7 @_ssdm_op_PartSelect.i7.i32.i32.i32(i32, i32, i32) nounwind readnone {
entry:
  %empty = call i32 @llvm.part.select.i32(i32 %0, i32 %1, i32 %2) ; [#uses=1 type=i32]
  %empty_4 = trunc i32 %empty to i7               ; [#uses=1 type=i7]
  ret i7 %empty_4
}

; [#uses=1]
define weak i10 @_ssdm_op_PartSelect.i10.i32.i32.i32(i32, i32, i32) nounwind readnone {
entry:
  %empty = call i32 @llvm.part.select.i32(i32 %0, i32 %1, i32 %2) ; [#uses=1 type=i32]
  %empty_5 = trunc i32 %empty to i10              ; [#uses=1 type=i10]
  ret i10 %empty_5
}

; [#uses=1]
define weak i32 @_ssdm_op_BitConcatenate.i32.i1.i7.i24(i1, i7, i24) nounwind readnone {
entry:
  %empty = zext i7 %1 to i31                      ; [#uses=1 type=i31]
  %empty_6 = zext i24 %2 to i31                   ; [#uses=1 type=i31]
  %empty_7 = shl i31 %empty, 24                   ; [#uses=1 type=i31]
  %empty_8 = or i31 %empty_7, %empty_6            ; [#uses=1 type=i31]
  %empty_9 = zext i1 %0 to i32                    ; [#uses=1 type=i32]
  %empty_10 = zext i31 %empty_8 to i32            ; [#uses=1 type=i32]
  %empty_11 = shl i32 %empty_9, 31                ; [#uses=1 type=i32]
  %empty_12 = or i32 %empty_11, %empty_10         ; [#uses=1 type=i32]
  ret i32 %empty_12
}

; [#uses=1]
declare void @_GLOBAL__I_a() nounwind

!opencl.kernels = !{!0, !7, !13, !16, !18, !21, !21, !27, !30, !30, !21, !21, !21, !21, !21, !21, !21, !21, !21, !21, !21, !21, !21, !21, !21, !21, !32, !32, !35, !21, !30, !30, !21, !37, !21, !21, !21, !43, !43, !45, !45, !47, !21, !21, !21, !49, !30, !30, !21, !52, !21, !21, !21, !54, !54, !56, !56, !58, !21, !21, !21, !21, !21, !21, !60, !21, !21, !21, !21, !21, !21, !21, !21, !21, !21, !21}
!hls.encrypted.func = !{}
!llvm.map.gv = !{!62}

!0 = metadata !{null, metadata !1, metadata !2, metadata !3, metadata !4, metadata !5, metadata !6}
!1 = metadata !{metadata !"kernel_arg_addr_space", i32 1, i32 1, i32 1}
!2 = metadata !{metadata !"kernel_arg_access_qual", metadata !"none", metadata !"none", metadata !"none"}
!3 = metadata !{metadata !"kernel_arg_type", metadata !"streamphase_t*", metadata !"streamdata_t*", metadata !"uint32*"}
!4 = metadata !{metadata !"kernel_arg_type_qual", metadata !"", metadata !"", metadata !""}
!5 = metadata !{metadata !"kernel_arg_name", metadata !"phasein", metadata !"dataout", metadata !"params"}
!6 = metadata !{metadata !"reqd_work_group_size", i32 1, i32 1, i32 1}
!7 = metadata !{null, metadata !8, metadata !9, metadata !10, metadata !11, metadata !12, metadata !6}
!8 = metadata !{metadata !"kernel_arg_addr_space", i32 0}
!9 = metadata !{metadata !"kernel_arg_access_qual", metadata !"none"}
!10 = metadata !{metadata !"kernel_arg_type", metadata !"const struct data_t &"}
!11 = metadata !{metadata !"kernel_arg_type_qual", metadata !""}
!12 = metadata !{metadata !"kernel_arg_name", metadata !"din"}
!13 = metadata !{null, metadata !8, metadata !9, metadata !14, metadata !11, metadata !15, metadata !6}
!14 = metadata !{metadata !"kernel_arg_type", metadata !"const ap_uint<3> &"}
!15 = metadata !{metadata !"kernel_arg_name", metadata !"op2"}
!16 = metadata !{null, metadata !8, metadata !9, metadata !17, metadata !11, metadata !15, metadata !6}
!17 = metadata !{metadata !"kernel_arg_type", metadata !"const ap_uint<4> &"}
!18 = metadata !{null, metadata !8, metadata !9, metadata !19, metadata !11, metadata !20, metadata !6}
!19 = metadata !{metadata !"kernel_arg_type", metadata !"const ap_fixed<24, 2, (enum ap_q_mode)5, (enum ap_o_mode)3, 0> &"}
!20 = metadata !{metadata !"kernel_arg_name", metadata !"op"}
!21 = metadata !{null, metadata !22, metadata !23, metadata !24, metadata !25, metadata !26, metadata !6}
!22 = metadata !{metadata !"kernel_arg_addr_space"}
!23 = metadata !{metadata !"kernel_arg_access_qual"}
!24 = metadata !{metadata !"kernel_arg_type"}
!25 = metadata !{metadata !"kernel_arg_type_qual"}
!26 = metadata !{metadata !"kernel_arg_name"}
!27 = metadata !{null, metadata !8, metadata !9, metadata !28, metadata !11, metadata !29, metadata !6}
!28 = metadata !{metadata !"kernel_arg_type", metadata !"_Bool"}
!29 = metadata !{metadata !"kernel_arg_name", metadata !"Cnative"}
!30 = metadata !{null, metadata !8, metadata !9, metadata !31, metadata !11, metadata !20, metadata !6}
!31 = metadata !{metadata !"kernel_arg_type", metadata !"int"}
!32 = metadata !{null, metadata !8, metadata !9, metadata !33, metadata !11, metadata !34, metadata !6}
!33 = metadata !{metadata !"kernel_arg_type", metadata !"double"}
!34 = metadata !{metadata !"kernel_arg_name", metadata !"v"}
!35 = metadata !{null, metadata !8, metadata !9, metadata !33, metadata !11, metadata !36, metadata !6}
!36 = metadata !{metadata !"kernel_arg_name", metadata !"d"}
!37 = metadata !{null, metadata !38, metadata !39, metadata !40, metadata !41, metadata !42, metadata !6}
!38 = metadata !{metadata !"kernel_arg_addr_space", i32 0, i32 0}
!39 = metadata !{metadata !"kernel_arg_access_qual", metadata !"none", metadata !"none"}
!40 = metadata !{metadata !"kernel_arg_type", metadata !"const ap_int_base<1, false> &", metadata !"const ap_int_base<54, true> &"}
!41 = metadata !{metadata !"kernel_arg_type_qual", metadata !"", metadata !""}
!42 = metadata !{metadata !"kernel_arg_name", metadata !"op", metadata !"op2"}
!43 = metadata !{null, metadata !8, metadata !9, metadata !44, metadata !11, metadata !20, metadata !6}
!44 = metadata !{metadata !"kernel_arg_type", metadata !"const ap_int_base<54, true> &"}
!45 = metadata !{null, metadata !8, metadata !9, metadata !46, metadata !11, metadata !20, metadata !6}
!46 = metadata !{metadata !"kernel_arg_type", metadata !"const ap_int_base<1, false> &"}
!47 = metadata !{null, metadata !8, metadata !9, metadata !48, metadata !11, metadata !15, metadata !6}
!48 = metadata !{metadata !"kernel_arg_type", metadata !"const ap_int_base<55, true> &"}
!49 = metadata !{null, metadata !38, metadata !39, metadata !50, metadata !41, metadata !51, metadata !6}
!50 = metadata !{metadata !"kernel_arg_type", metadata !"const ap_int_base<11, false> &", metadata !"int"}
!51 = metadata !{metadata !"kernel_arg_name", metadata !"op", metadata !"i_op"}
!52 = metadata !{null, metadata !38, metadata !39, metadata !53, metadata !41, metadata !42, metadata !6}
!53 = metadata !{metadata !"kernel_arg_type", metadata !"const ap_int_base<11, false> &", metadata !"const ap_int_base<32, true> &"}
!54 = metadata !{null, metadata !8, metadata !9, metadata !55, metadata !11, metadata !20, metadata !6}
!55 = metadata !{metadata !"kernel_arg_type", metadata !"const ap_int_base<32, true> &"}
!56 = metadata !{null, metadata !8, metadata !9, metadata !57, metadata !11, metadata !20, metadata !6}
!57 = metadata !{metadata !"kernel_arg_type", metadata !"const ap_int_base<11, false> &"}
!58 = metadata !{null, metadata !8, metadata !9, metadata !59, metadata !11, metadata !15, metadata !6}
!59 = metadata !{metadata !"kernel_arg_type", metadata !"const ap_int_base<33, true> &"}
!60 = metadata !{null, metadata !8, metadata !9, metadata !33, metadata !11, metadata !61, metadata !6}
!61 = metadata !{metadata !"kernel_arg_name", metadata !"pf"}
!62 = metadata !{metadata !63, [1 x i32]* @llvm_global_ctors_0}
!63 = metadata !{metadata !64}
!64 = metadata !{i32 0, i32 31, metadata !65}
!65 = metadata !{metadata !66}
!66 = metadata !{metadata !"llvm.global_ctors.0", metadata !67, metadata !"", i32 0, i32 31}
!67 = metadata !{metadata !68}
!68 = metadata !{i32 0, i32 0, i32 1}
!69 = metadata !{metadata !70, metadata !73, metadata !76}
!70 = metadata !{i32 0, i32 23, metadata !71}
!71 = metadata !{metadata !72}
!72 = metadata !{metadata !"phasein.V.phase.V", metadata !67, metadata !"uint24", i32 0, i32 23}
!73 = metadata !{i32 24, i32 27, metadata !74}
!74 = metadata !{metadata !75}
!75 = metadata !{metadata !"phasein.V.voice.V", metadata !67, metadata !"uint4", i32 0, i32 3}
!76 = metadata !{i32 28, i32 30, metadata !77}
!77 = metadata !{metadata !78}
!78 = metadata !{metadata !"phasein.V.layer.V", metadata !67, metadata !"uint3", i32 0, i32 2}
!79 = metadata !{metadata !80, metadata !83, metadata !86}
!80 = metadata !{i32 0, i32 23, metadata !81}
!81 = metadata !{metadata !82}
!82 = metadata !{metadata !"dataout.V.data.V", metadata !67, metadata !"int24", i32 0, i32 23}
!83 = metadata !{i32 24, i32 27, metadata !84}
!84 = metadata !{metadata !85}
!85 = metadata !{metadata !"dataout.V.voice.V", metadata !67, metadata !"uint4", i32 0, i32 3}
!86 = metadata !{i32 28, i32 30, metadata !87}
!87 = metadata !{metadata !88}
!88 = metadata !{metadata !"dataout.V.layer.V", metadata !67, metadata !"uint3", i32 0, i32 2}
!89 = metadata !{metadata !90}
!90 = metadata !{i32 0, i32 31, metadata !91}
!91 = metadata !{metadata !92}
!92 = metadata !{metadata !"params.V", metadata !93, metadata !"uint32", i32 0, i32 31}
!93 = metadata !{metadata !94}
!94 = metadata !{i32 0, i32 1023, i32 1}
!95 = metadata !{i32 790544, metadata !96, metadata !"phasein.V", null, i32 7, metadata !2901, i32 0, i32 0, metadata !2903, metadata !2915, metadata !2927} ; [ DW_TAG_arg_variable_aggr_vec ]
!96 = metadata !{i32 786689, metadata !97, metadata !"phasein", metadata !98, i32 16777223, metadata !101, i32 0, i32 0} ; [ DW_TAG_arg_variable ]
!97 = metadata !{i32 786478, i32 0, metadata !98, metadata !"nco", metadata !"nco", metadata !"_Z3ncoPN3hls6streamI7phase_tEEPNS0_I6data_tEEP7ap_uintILi32EE", metadata !98, i32 7, metadata !99, i1 false, i1 true, i32 0, i32 0, null, i32 256, i1 false, null, null, null, metadata !130, i32 8} ; [ DW_TAG_subprogram ]
!98 = metadata !{i32 786473, metadata !"Z:/Documents/workspace/zysh101/src/hls/nco.cpp", metadata !"Z:\5CDocuments\5Cworkspace\5Czysh101\5Csrc\5Ctcl", null} ; [ DW_TAG_file_type ]
!99 = metadata !{i32 786453, i32 0, metadata !"", i32 0, i32 0, i64 0, i64 0, i64 0, i32 0, null, metadata !100, i32 0, i32 0} ; [ DW_TAG_subroutine_type ]
!100 = metadata !{null, metadata !101, metadata !1801, metadata !2238}
!101 = metadata !{i32 786447, null, metadata !"", null, i32 0, i64 32, i64 32, i64 0, i32 0, metadata !102} ; [ DW_TAG_pointer_type ]
!102 = metadata !{i32 786454, null, metadata !"streamphase_t", metadata !98, i32 61, i64 0, i64 0, i64 0, i32 0, metadata !103} ; [ DW_TAG_typedef ]
!103 = metadata !{i32 786434, metadata !104, metadata !"stream<phase_t>", metadata !105, i32 79, i64 64, i64 32, i32 0, i32 0, null, metadata !106, i32 0, null, metadata !1799} ; [ DW_TAG_class_type ]
!104 = metadata !{i32 786489, null, metadata !"hls", metadata !105, i32 69} ; [ DW_TAG_namespace ]
!105 = metadata !{i32 786473, metadata !"C:/Xilinx/Vivado_HLS/2017.2/common/technology/autopilot\5Chls_stream.h", metadata !"Z:\5CDocuments\5Cworkspace\5Czysh101\5Csrc\5Ctcl", null} ; [ DW_TAG_file_type ]
!106 = metadata !{metadata !107, metadata !1757, metadata !1761, metadata !1764, metadata !1769, metadata !1773, metadata !1777, metadata !1780, metadata !1784, metadata !1785, metadata !1786, metadata !1789, metadata !1792, metadata !1793, metadata !1796}
!107 = metadata !{i32 786445, metadata !103, metadata !"V", metadata !105, i32 163, i64 64, i64 32, i64 0, i32 0, metadata !108} ; [ DW_TAG_member ]
!108 = metadata !{i32 786434, null, metadata !"phase_t", metadata !109, i32 54, i64 64, i64 32, i32 0, i32 0, null, metadata !110, i32 0, null, null} ; [ DW_TAG_class_type ]
!109 = metadata !{i32 786473, metadata !"Z:/Documents/workspace/zysh101/src/hls/typedef.h", metadata !"Z:\5CDocuments\5Cworkspace\5Czysh101\5Csrc\5Ctcl", null} ; [ DW_TAG_file_type ]
!110 = metadata !{metadata !111, metadata !811, metadata !1404, metadata !1748, metadata !1752}
!111 = metadata !{i32 786445, metadata !108, metadata !"phase", metadata !109, i32 56, i64 32, i64 32, i64 0, i32 0, metadata !112} ; [ DW_TAG_member ]
!112 = metadata !{i32 786454, null, metadata !"ufixed24d12", metadata !109, i32 34, i64 0, i64 0, i64 0, i32 0, metadata !113} ; [ DW_TAG_typedef ]
!113 = metadata !{i32 786434, null, metadata !"ap_ufixed<24, 12, 5, 3, 0>", metadata !114, i32 411, i64 32, i64 32, i32 0, i32 0, null, metadata !115, i32 0, null, metadata !810} ; [ DW_TAG_class_type ]
!114 = metadata !{i32 786473, metadata !"C:/Xilinx/Vivado_HLS/2017.2/common/technology/autopilot\5Cap_int.h", metadata !"Z:\5CDocuments\5Cworkspace\5Czysh101\5Csrc\5Ctcl", null} ; [ DW_TAG_file_type ]
!115 = metadata !{metadata !116, metadata !728, metadata !732, metadata !738, metadata !744, metadata !747, metadata !750, metadata !753, metadata !756, metadata !759, metadata !762, metadata !765, metadata !768, metadata !771, metadata !774, metadata !777, metadata !780, metadata !783, metadata !786, metadata !789, metadata !792, metadata !795, metadata !799, metadata !802, metadata !806, metadata !809}
!116 = metadata !{i32 786460, metadata !113, null, metadata !114, i32 0, i64 0, i64 0, i64 0, i32 0, metadata !117} ; [ DW_TAG_inheritance ]
!117 = metadata !{i32 786434, null, metadata !"ap_fixed_base<24, 12, false, 5, 3, 0>", metadata !118, i32 512, i64 32, i64 32, i32 0, i32 0, null, metadata !119, i32 0, null, metadata !722} ; [ DW_TAG_class_type ]
!118 = metadata !{i32 786473, metadata !"C:/Xilinx/Vivado_HLS/2017.2/common/technology/autopilot/ap_fixed_syn.h", metadata !"Z:\5CDocuments\5Cworkspace\5Czysh101\5Csrc\5Ctcl", null} ; [ DW_TAG_file_type ]
!119 = metadata !{metadata !120, metadata !142, metadata !146, metadata !149, metadata !152, metadata !181, metadata !187, metadata !190, metadata !194, metadata !198, metadata !202, metadata !206, metadata !210, metadata !213, metadata !217, metadata !221, metadata !225, metadata !230, metadata !235, metadata !240, metadata !243, metadata !248, metadata !252, metadata !257, metadata !260, metadata !263, metadata !266, metadata !269, metadata !272, metadata !275, metadata !279, metadata !282, metadata !286, metadata !289, metadata !292, metadata !295, metadata !568, metadata !571, metadata !574, metadata !577, metadata !580, metadata !583, metadata !586, metadata !589, metadata !590, metadata !591, metadata !592, metadata !595, metadata !598, metadata !601, metadata !604, metadata !607, metadata !608, metadata !609, metadata !612, metadata !615, metadata !618, metadata !621, metadata !622, metadata !625, metadata !628, metadata !629, metadata !632, metadata !633, metadata !636, metadata !640, metadata !644, metadata !647, metadata !650, metadata !653, metadata !656, metadata !657, metadata !658, metadata !661, metadata !664, metadata !665, metadata !666, metadata !669, metadata !670, metadata !671, metadata !672, metadata !673, metadata !674, metadata !678, metadata !681, metadata !682, metadata !683, metadata !686, metadata !689, metadata !693, metadata !694, metadata !697, metadata !698, metadata !701, metadata !704, metadata !705, metadata !706, metadata !707, metadata !708, metadata !711, metadata !714, metadata !715, metadata !718, metadata !721}
!120 = metadata !{i32 786460, metadata !117, null, metadata !118, i32 0, i64 0, i64 0, i64 0, i32 0, metadata !121} ; [ DW_TAG_inheritance ]
!121 = metadata !{i32 786434, null, metadata !"ssdm_int<24 + 1024 * 0, false>", metadata !122, i32 26, i64 32, i64 32, i32 0, i32 0, null, metadata !123, i32 0, null, metadata !137} ; [ DW_TAG_class_type ]
!122 = metadata !{i32 786473, metadata !"C:/Xilinx/Vivado_HLS/2017.2/common/technology/autopilot/etc/autopilot_dt.def", metadata !"Z:\5CDocuments\5Cworkspace\5Czysh101\5Csrc\5Ctcl", null} ; [ DW_TAG_file_type ]
!123 = metadata !{metadata !124, metadata !126, metadata !132}
!124 = metadata !{i32 786445, metadata !121, metadata !"V", metadata !122, i32 26, i64 24, i64 32, i64 0, i32 0, metadata !125} ; [ DW_TAG_member ]
!125 = metadata !{i32 786468, null, metadata !"uint24", null, i32 0, i64 24, i64 32, i64 0, i32 0, i32 7} ; [ DW_TAG_base_type ]
!126 = metadata !{i32 786478, i32 0, metadata !121, metadata !"ssdm_int", metadata !"ssdm_int", metadata !"", metadata !122, i32 26, metadata !127, i1 false, i1 false, i32 0, i32 0, null, i32 256, i1 false, null, null, i32 0, metadata !130, i32 26} ; [ DW_TAG_subprogram ]
!127 = metadata !{i32 786453, i32 0, metadata !"", i32 0, i32 0, i64 0, i64 0, i64 0, i32 0, null, metadata !128, i32 0, i32 0} ; [ DW_TAG_subroutine_type ]
!128 = metadata !{null, metadata !129}
!129 = metadata !{i32 786447, i32 0, metadata !"", i32 0, i32 0, i64 32, i64 32, i64 0, i32 64, metadata !121} ; [ DW_TAG_pointer_type ]
!130 = metadata !{metadata !131}
!131 = metadata !{i32 786468}                     ; [ DW_TAG_base_type ]
!132 = metadata !{i32 786478, i32 0, metadata !121, metadata !"ssdm_int", metadata !"ssdm_int", metadata !"", metadata !122, i32 26, metadata !133, i1 false, i1 false, i32 0, i32 0, null, i32 320, i1 false, null, null, i32 0, metadata !130, i32 26} ; [ DW_TAG_subprogram ]
!133 = metadata !{i32 786453, i32 0, metadata !"", i32 0, i32 0, i64 0, i64 0, i64 0, i32 0, null, metadata !134, i32 0, i32 0} ; [ DW_TAG_subroutine_type ]
!134 = metadata !{null, metadata !129, metadata !135}
!135 = metadata !{i32 786448, null, null, null, i32 0, i64 0, i64 0, i64 0, i32 0, metadata !136} ; [ DW_TAG_reference_type ]
!136 = metadata !{i32 786470, null, metadata !"", null, i32 0, i64 0, i64 0, i64 0, i32 0, metadata !121} ; [ DW_TAG_const_type ]
!137 = metadata !{metadata !138, metadata !140}
!138 = metadata !{i32 786480, null, metadata !"_AP_N", metadata !139, i64 24, null, i32 0, i32 0} ; [ DW_TAG_template_value_parameter ]
!139 = metadata !{i32 786468, null, metadata !"int", null, i32 0, i64 32, i64 32, i64 0, i32 0, i32 5} ; [ DW_TAG_base_type ]
!140 = metadata !{i32 786480, null, metadata !"_AP_S", metadata !141, i64 0, null, i32 0, i32 0} ; [ DW_TAG_template_value_parameter ]
!141 = metadata !{i32 786468, null, metadata !"bool", null, i32 0, i64 8, i64 8, i64 0, i32 0, i32 2} ; [ DW_TAG_base_type ]
!142 = metadata !{i32 786478, i32 0, metadata !117, metadata !"overflow_adjust", metadata !"overflow_adjust", metadata !"_ZN13ap_fixed_baseILi24ELi12ELb0EL9ap_q_mode5EL9ap_o_mode3ELi0EE15overflow_adjustEbbbb", metadata !118, i32 522, metadata !143, i1 false, i1 false, i32 0, i32 0, null, i32 256, i1 false, null, null, i32 0, metadata !130, i32 522} ; [ DW_TAG_subprogram ]
!143 = metadata !{i32 786453, i32 0, metadata !"", i32 0, i32 0, i64 0, i64 0, i64 0, i32 0, null, metadata !144, i32 0, i32 0} ; [ DW_TAG_subroutine_type ]
!144 = metadata !{null, metadata !145, metadata !141, metadata !141, metadata !141, metadata !141}
!145 = metadata !{i32 786447, i32 0, metadata !"", i32 0, i32 0, i64 32, i64 32, i64 0, i32 64, metadata !117} ; [ DW_TAG_pointer_type ]
!146 = metadata !{i32 786478, i32 0, metadata !117, metadata !"quantization_adjust", metadata !"quantization_adjust", metadata !"_ZN13ap_fixed_baseILi24ELi12ELb0EL9ap_q_mode5EL9ap_o_mode3ELi0EE19quantization_adjustEbbb", metadata !118, i32 595, metadata !147, i1 false, i1 false, i32 0, i32 0, null, i32 256, i1 false, null, null, i32 0, metadata !130, i32 595} ; [ DW_TAG_subprogram ]
!147 = metadata !{i32 786453, i32 0, metadata !"", i32 0, i32 0, i64 0, i64 0, i64 0, i32 0, null, metadata !148, i32 0, i32 0} ; [ DW_TAG_subroutine_type ]
!148 = metadata !{metadata !141, metadata !145, metadata !141, metadata !141, metadata !141}
!149 = metadata !{i32 786478, i32 0, metadata !117, metadata !"ap_fixed_base", metadata !"ap_fixed_base", metadata !"", metadata !118, i32 653, metadata !150, i1 false, i1 false, i32 0, i32 0, null, i32 256, i1 false, null, null, i32 0, metadata !130, i32 653} ; [ DW_TAG_subprogram ]
!150 = metadata !{i32 786453, i32 0, metadata !"", i32 0, i32 0, i64 0, i64 0, i64 0, i32 0, null, metadata !151, i32 0, i32 0} ; [ DW_TAG_subroutine_type ]
!151 = metadata !{null, metadata !145}
!152 = metadata !{i32 786478, i32 0, metadata !117, metadata !"ap_fixed_base<24, 12, false, 5, 3, 0>", metadata !"ap_fixed_base<24, 12, false, 5, 3, 0>", metadata !"", metadata !118, i32 663, metadata !153, i1 false, i1 false, i32 0, i32 0, null, i32 256, i1 false, null, metadata !157, i32 0, metadata !130, i32 663} ; [ DW_TAG_subprogram ]
!153 = metadata !{i32 786453, i32 0, metadata !"", i32 0, i32 0, i64 0, i64 0, i64 0, i32 0, null, metadata !154, i32 0, i32 0} ; [ DW_TAG_subroutine_type ]
!154 = metadata !{null, metadata !145, metadata !155}
!155 = metadata !{i32 786448, null, null, null, i32 0, i64 0, i64 0, i64 0, i32 0, metadata !156} ; [ DW_TAG_reference_type ]
!156 = metadata !{i32 786470, null, metadata !"", null, i32 0, i64 0, i64 0, i64 0, i32 0, metadata !117} ; [ DW_TAG_const_type ]
!157 = metadata !{metadata !158, metadata !159, metadata !160, metadata !161, metadata !172, metadata !180}
!158 = metadata !{i32 786480, null, metadata !"_AP_W2", metadata !139, i64 24, null, i32 0, i32 0} ; [ DW_TAG_template_value_parameter ]
!159 = metadata !{i32 786480, null, metadata !"_AP_I2", metadata !139, i64 12, null, i32 0, i32 0} ; [ DW_TAG_template_value_parameter ]
!160 = metadata !{i32 786480, null, metadata !"_AP_S2", metadata !141, i64 0, null, i32 0, i32 0} ; [ DW_TAG_template_value_parameter ]
!161 = metadata !{i32 786480, null, metadata !"_AP_Q2", metadata !162, i64 5, null, i32 0, i32 0} ; [ DW_TAG_template_value_parameter ]
!162 = metadata !{i32 786436, null, metadata !"ap_q_mode", metadata !163, i32 657, i64 3, i64 4, i32 0, i32 0, null, metadata !164, i32 0, i32 0} ; [ DW_TAG_enumeration_type ]
!163 = metadata !{i32 786473, metadata !"C:/Xilinx/Vivado_HLS/2017.2/common/technology/autopilot/ap_int_syn.h", metadata !"Z:\5CDocuments\5Cworkspace\5Czysh101\5Csrc\5Ctcl", null} ; [ DW_TAG_file_type ]
!164 = metadata !{metadata !165, metadata !166, metadata !167, metadata !168, metadata !169, metadata !170, metadata !171}
!165 = metadata !{i32 786472, metadata !"SC_RND", i64 0} ; [ DW_TAG_enumerator ]
!166 = metadata !{i32 786472, metadata !"SC_RND_ZERO", i64 1} ; [ DW_TAG_enumerator ]
!167 = metadata !{i32 786472, metadata !"SC_RND_MIN_INF", i64 2} ; [ DW_TAG_enumerator ]
!168 = metadata !{i32 786472, metadata !"SC_RND_INF", i64 3} ; [ DW_TAG_enumerator ]
!169 = metadata !{i32 786472, metadata !"SC_RND_CONV", i64 4} ; [ DW_TAG_enumerator ]
!170 = metadata !{i32 786472, metadata !"SC_TRN", i64 5} ; [ DW_TAG_enumerator ]
!171 = metadata !{i32 786472, metadata !"SC_TRN_ZERO", i64 6} ; [ DW_TAG_enumerator ]
!172 = metadata !{i32 786480, null, metadata !"_AP_O2", metadata !173, i64 3, null, i32 0, i32 0} ; [ DW_TAG_template_value_parameter ]
!173 = metadata !{i32 786436, null, metadata !"ap_o_mode", metadata !163, i32 667, i64 3, i64 4, i32 0, i32 0, null, metadata !174, i32 0, i32 0} ; [ DW_TAG_enumeration_type ]
!174 = metadata !{metadata !175, metadata !176, metadata !177, metadata !178, metadata !179}
!175 = metadata !{i32 786472, metadata !"SC_SAT", i64 0} ; [ DW_TAG_enumerator ]
!176 = metadata !{i32 786472, metadata !"SC_SAT_ZERO", i64 1} ; [ DW_TAG_enumerator ]
!177 = metadata !{i32 786472, metadata !"SC_SAT_SYM", i64 2} ; [ DW_TAG_enumerator ]
!178 = metadata !{i32 786472, metadata !"SC_WRAP", i64 3} ; [ DW_TAG_enumerator ]
!179 = metadata !{i32 786472, metadata !"SC_WRAP_SM", i64 4} ; [ DW_TAG_enumerator ]
!180 = metadata !{i32 786480, null, metadata !"_AP_N2", metadata !139, i64 0, null, i32 0, i32 0} ; [ DW_TAG_template_value_parameter ]
!181 = metadata !{i32 786478, i32 0, metadata !117, metadata !"ap_fixed_base<24, 12, false, 5, 3, 0>", metadata !"ap_fixed_base<24, 12, false, 5, 3, 0>", metadata !"", metadata !118, i32 777, metadata !182, i1 false, i1 false, i32 0, i32 0, null, i32 256, i1 false, null, metadata !157, i32 0, metadata !130, i32 777} ; [ DW_TAG_subprogram ]
!182 = metadata !{i32 786453, i32 0, metadata !"", i32 0, i32 0, i64 0, i64 0, i64 0, i32 0, null, metadata !183, i32 0, i32 0} ; [ DW_TAG_subroutine_type ]
!183 = metadata !{null, metadata !145, metadata !184}
!184 = metadata !{i32 786448, null, null, null, i32 0, i64 0, i64 0, i64 0, i32 0, metadata !185} ; [ DW_TAG_reference_type ]
!185 = metadata !{i32 786470, null, metadata !"", null, i32 0, i64 0, i64 0, i64 0, i32 0, metadata !186} ; [ DW_TAG_const_type ]
!186 = metadata !{i32 786485, null, metadata !"", null, i32 0, i64 0, i64 0, i64 0, i32 0, metadata !117} ; [ DW_TAG_volatile_type ]
!187 = metadata !{i32 786478, i32 0, metadata !117, metadata !"ap_fixed_base", metadata !"ap_fixed_base", metadata !"", metadata !118, i32 789, metadata !188, i1 false, i1 false, i32 0, i32 0, null, i32 256, i1 false, null, null, i32 0, metadata !130, i32 789} ; [ DW_TAG_subprogram ]
!188 = metadata !{i32 786453, i32 0, metadata !"", i32 0, i32 0, i64 0, i64 0, i64 0, i32 0, null, metadata !189, i32 0, i32 0} ; [ DW_TAG_subroutine_type ]
!189 = metadata !{null, metadata !145, metadata !141}
!190 = metadata !{i32 786478, i32 0, metadata !117, metadata !"ap_fixed_base", metadata !"ap_fixed_base", metadata !"", metadata !118, i32 790, metadata !191, i1 false, i1 false, i32 0, i32 0, null, i32 256, i1 false, null, null, i32 0, metadata !130, i32 790} ; [ DW_TAG_subprogram ]
!191 = metadata !{i32 786453, i32 0, metadata !"", i32 0, i32 0, i64 0, i64 0, i64 0, i32 0, null, metadata !192, i32 0, i32 0} ; [ DW_TAG_subroutine_type ]
!192 = metadata !{null, metadata !145, metadata !193}
!193 = metadata !{i32 786468, null, metadata !"char", null, i32 0, i64 8, i64 8, i64 0, i32 0, i32 6} ; [ DW_TAG_base_type ]
!194 = metadata !{i32 786478, i32 0, metadata !117, metadata !"ap_fixed_base", metadata !"ap_fixed_base", metadata !"", metadata !118, i32 791, metadata !195, i1 false, i1 false, i32 0, i32 0, null, i32 256, i1 false, null, null, i32 0, metadata !130, i32 791} ; [ DW_TAG_subprogram ]
!195 = metadata !{i32 786453, i32 0, metadata !"", i32 0, i32 0, i64 0, i64 0, i64 0, i32 0, null, metadata !196, i32 0, i32 0} ; [ DW_TAG_subroutine_type ]
!196 = metadata !{null, metadata !145, metadata !197}
!197 = metadata !{i32 786468, null, metadata !"signed char", null, i32 0, i64 8, i64 8, i64 0, i32 0, i32 6} ; [ DW_TAG_base_type ]
!198 = metadata !{i32 786478, i32 0, metadata !117, metadata !"ap_fixed_base", metadata !"ap_fixed_base", metadata !"", metadata !118, i32 792, metadata !199, i1 false, i1 false, i32 0, i32 0, null, i32 256, i1 false, null, null, i32 0, metadata !130, i32 792} ; [ DW_TAG_subprogram ]
!199 = metadata !{i32 786453, i32 0, metadata !"", i32 0, i32 0, i64 0, i64 0, i64 0, i32 0, null, metadata !200, i32 0, i32 0} ; [ DW_TAG_subroutine_type ]
!200 = metadata !{null, metadata !145, metadata !201}
!201 = metadata !{i32 786468, null, metadata !"unsigned char", null, i32 0, i64 8, i64 8, i64 0, i32 0, i32 8} ; [ DW_TAG_base_type ]
!202 = metadata !{i32 786478, i32 0, metadata !117, metadata !"ap_fixed_base", metadata !"ap_fixed_base", metadata !"", metadata !118, i32 793, metadata !203, i1 false, i1 false, i32 0, i32 0, null, i32 256, i1 false, null, null, i32 0, metadata !130, i32 793} ; [ DW_TAG_subprogram ]
!203 = metadata !{i32 786453, i32 0, metadata !"", i32 0, i32 0, i64 0, i64 0, i64 0, i32 0, null, metadata !204, i32 0, i32 0} ; [ DW_TAG_subroutine_type ]
!204 = metadata !{null, metadata !145, metadata !205}
!205 = metadata !{i32 786468, null, metadata !"short", null, i32 0, i64 16, i64 16, i64 0, i32 0, i32 5} ; [ DW_TAG_base_type ]
!206 = metadata !{i32 786478, i32 0, metadata !117, metadata !"ap_fixed_base", metadata !"ap_fixed_base", metadata !"", metadata !118, i32 794, metadata !207, i1 false, i1 false, i32 0, i32 0, null, i32 256, i1 false, null, null, i32 0, metadata !130, i32 794} ; [ DW_TAG_subprogram ]
!207 = metadata !{i32 786453, i32 0, metadata !"", i32 0, i32 0, i64 0, i64 0, i64 0, i32 0, null, metadata !208, i32 0, i32 0} ; [ DW_TAG_subroutine_type ]
!208 = metadata !{null, metadata !145, metadata !209}
!209 = metadata !{i32 786468, null, metadata !"unsigned short", null, i32 0, i64 16, i64 16, i64 0, i32 0, i32 7} ; [ DW_TAG_base_type ]
!210 = metadata !{i32 786478, i32 0, metadata !117, metadata !"ap_fixed_base", metadata !"ap_fixed_base", metadata !"", metadata !118, i32 795, metadata !211, i1 false, i1 false, i32 0, i32 0, null, i32 256, i1 false, null, null, i32 0, metadata !130, i32 795} ; [ DW_TAG_subprogram ]
!211 = metadata !{i32 786453, i32 0, metadata !"", i32 0, i32 0, i64 0, i64 0, i64 0, i32 0, null, metadata !212, i32 0, i32 0} ; [ DW_TAG_subroutine_type ]
!212 = metadata !{null, metadata !145, metadata !139}
!213 = metadata !{i32 786478, i32 0, metadata !117, metadata !"ap_fixed_base", metadata !"ap_fixed_base", metadata !"", metadata !118, i32 796, metadata !214, i1 false, i1 false, i32 0, i32 0, null, i32 256, i1 false, null, null, i32 0, metadata !130, i32 796} ; [ DW_TAG_subprogram ]
!214 = metadata !{i32 786453, i32 0, metadata !"", i32 0, i32 0, i64 0, i64 0, i64 0, i32 0, null, metadata !215, i32 0, i32 0} ; [ DW_TAG_subroutine_type ]
!215 = metadata !{null, metadata !145, metadata !216}
!216 = metadata !{i32 786468, null, metadata !"unsigned int", null, i32 0, i64 32, i64 32, i64 0, i32 0, i32 7} ; [ DW_TAG_base_type ]
!217 = metadata !{i32 786478, i32 0, metadata !117, metadata !"ap_fixed_base", metadata !"ap_fixed_base", metadata !"", metadata !118, i32 801, metadata !218, i1 false, i1 false, i32 0, i32 0, null, i32 256, i1 false, null, null, i32 0, metadata !130, i32 801} ; [ DW_TAG_subprogram ]
!218 = metadata !{i32 786453, i32 0, metadata !"", i32 0, i32 0, i64 0, i64 0, i64 0, i32 0, null, metadata !219, i32 0, i32 0} ; [ DW_TAG_subroutine_type ]
!219 = metadata !{null, metadata !145, metadata !220}
!220 = metadata !{i32 786468, null, metadata !"long int", null, i32 0, i64 32, i64 32, i64 0, i32 0, i32 5} ; [ DW_TAG_base_type ]
!221 = metadata !{i32 786478, i32 0, metadata !117, metadata !"ap_fixed_base", metadata !"ap_fixed_base", metadata !"", metadata !118, i32 802, metadata !222, i1 false, i1 false, i32 0, i32 0, null, i32 256, i1 false, null, null, i32 0, metadata !130, i32 802} ; [ DW_TAG_subprogram ]
!222 = metadata !{i32 786453, i32 0, metadata !"", i32 0, i32 0, i64 0, i64 0, i64 0, i32 0, null, metadata !223, i32 0, i32 0} ; [ DW_TAG_subroutine_type ]
!223 = metadata !{null, metadata !145, metadata !224}
!224 = metadata !{i32 786468, null, metadata !"long unsigned int", null, i32 0, i64 32, i64 32, i64 0, i32 0, i32 7} ; [ DW_TAG_base_type ]
!225 = metadata !{i32 786478, i32 0, metadata !117, metadata !"ap_fixed_base", metadata !"ap_fixed_base", metadata !"", metadata !118, i32 804, metadata !226, i1 false, i1 false, i32 0, i32 0, null, i32 256, i1 false, null, null, i32 0, metadata !130, i32 804} ; [ DW_TAG_subprogram ]
!226 = metadata !{i32 786453, i32 0, metadata !"", i32 0, i32 0, i64 0, i64 0, i64 0, i32 0, null, metadata !227, i32 0, i32 0} ; [ DW_TAG_subroutine_type ]
!227 = metadata !{null, metadata !145, metadata !228}
!228 = metadata !{i32 786454, null, metadata !"ap_slong", metadata !118, i32 112, i64 0, i64 0, i64 0, i32 0, metadata !229} ; [ DW_TAG_typedef ]
!229 = metadata !{i32 786468, null, metadata !"long long int", null, i32 0, i64 64, i64 64, i64 0, i32 0, i32 5} ; [ DW_TAG_base_type ]
!230 = metadata !{i32 786478, i32 0, metadata !117, metadata !"ap_fixed_base", metadata !"ap_fixed_base", metadata !"", metadata !118, i32 805, metadata !231, i1 false, i1 false, i32 0, i32 0, null, i32 256, i1 false, null, null, i32 0, metadata !130, i32 805} ; [ DW_TAG_subprogram ]
!231 = metadata !{i32 786453, i32 0, metadata !"", i32 0, i32 0, i64 0, i64 0, i64 0, i32 0, null, metadata !232, i32 0, i32 0} ; [ DW_TAG_subroutine_type ]
!232 = metadata !{null, metadata !145, metadata !233}
!233 = metadata !{i32 786454, null, metadata !"ap_ulong", metadata !118, i32 111, i64 0, i64 0, i64 0, i32 0, metadata !234} ; [ DW_TAG_typedef ]
!234 = metadata !{i32 786468, null, metadata !"long long unsigned int", null, i32 0, i64 64, i64 64, i64 0, i32 0, i32 7} ; [ DW_TAG_base_type ]
!235 = metadata !{i32 786478, i32 0, metadata !117, metadata !"ap_fixed_base", metadata !"ap_fixed_base", metadata !"", metadata !118, i32 806, metadata !236, i1 false, i1 false, i32 0, i32 0, null, i32 256, i1 false, null, null, i32 0, metadata !130, i32 806} ; [ DW_TAG_subprogram ]
!236 = metadata !{i32 786453, i32 0, metadata !"", i32 0, i32 0, i64 0, i64 0, i64 0, i32 0, null, metadata !237, i32 0, i32 0} ; [ DW_TAG_subroutine_type ]
!237 = metadata !{null, metadata !145, metadata !238}
!238 = metadata !{i32 786447, null, metadata !"", null, i32 0, i64 32, i64 32, i64 0, i32 0, metadata !239} ; [ DW_TAG_pointer_type ]
!239 = metadata !{i32 786470, null, metadata !"", null, i32 0, i64 0, i64 0, i64 0, i32 0, metadata !193} ; [ DW_TAG_const_type ]
!240 = metadata !{i32 786478, i32 0, metadata !117, metadata !"ap_fixed_base", metadata !"ap_fixed_base", metadata !"", metadata !118, i32 813, metadata !241, i1 false, i1 false, i32 0, i32 0, null, i32 256, i1 false, null, null, i32 0, metadata !130, i32 813} ; [ DW_TAG_subprogram ]
!241 = metadata !{i32 786453, i32 0, metadata !"", i32 0, i32 0, i64 0, i64 0, i64 0, i32 0, null, metadata !242, i32 0, i32 0} ; [ DW_TAG_subroutine_type ]
!242 = metadata !{null, metadata !145, metadata !238, metadata !197}
!243 = metadata !{i32 786478, i32 0, metadata !117, metadata !"doubleToRawBits", metadata !"doubleToRawBits", metadata !"_ZNK13ap_fixed_baseILi24ELi12ELb0EL9ap_q_mode5EL9ap_o_mode3ELi0EE15doubleToRawBitsEd", metadata !118, i32 849, metadata !244, i1 false, i1 false, i32 0, i32 0, null, i32 256, i1 false, null, null, i32 0, metadata !130, i32 849} ; [ DW_TAG_subprogram ]
!244 = metadata !{i32 786453, i32 0, metadata !"", i32 0, i32 0, i64 0, i64 0, i64 0, i32 0, null, metadata !245, i32 0, i32 0} ; [ DW_TAG_subroutine_type ]
!245 = metadata !{metadata !234, metadata !246, metadata !247}
!246 = metadata !{i32 786447, i32 0, metadata !"", i32 0, i32 0, i64 32, i64 32, i64 0, i32 64, metadata !156} ; [ DW_TAG_pointer_type ]
!247 = metadata !{i32 786468, null, metadata !"double", null, i32 0, i64 64, i64 64, i64 0, i32 0, i32 4} ; [ DW_TAG_base_type ]
!248 = metadata !{i32 786478, i32 0, metadata !117, metadata !"floatToRawBits", metadata !"floatToRawBits", metadata !"_ZNK13ap_fixed_baseILi24ELi12ELb0EL9ap_q_mode5EL9ap_o_mode3ELi0EE14floatToRawBitsEf", metadata !118, i32 857, metadata !249, i1 false, i1 false, i32 0, i32 0, null, i32 256, i1 false, null, null, i32 0, metadata !130, i32 857} ; [ DW_TAG_subprogram ]
!249 = metadata !{i32 786453, i32 0, metadata !"", i32 0, i32 0, i64 0, i64 0, i64 0, i32 0, null, metadata !250, i32 0, i32 0} ; [ DW_TAG_subroutine_type ]
!250 = metadata !{metadata !216, metadata !246, metadata !251}
!251 = metadata !{i32 786468, null, metadata !"float", null, i32 0, i64 32, i64 32, i64 0, i32 0, i32 4} ; [ DW_TAG_base_type ]
!252 = metadata !{i32 786478, i32 0, metadata !117, metadata !"halfToRawBits", metadata !"halfToRawBits", metadata !"_ZNK13ap_fixed_baseILi24ELi12ELb0EL9ap_q_mode5EL9ap_o_mode3ELi0EE13halfToRawBitsEDh", metadata !118, i32 865, metadata !253, i1 false, i1 false, i32 0, i32 0, null, i32 256, i1 false, null, null, i32 0, metadata !130, i32 865} ; [ DW_TAG_subprogram ]
!253 = metadata !{i32 786453, i32 0, metadata !"", i32 0, i32 0, i64 0, i64 0, i64 0, i32 0, null, metadata !254, i32 0, i32 0} ; [ DW_TAG_subroutine_type ]
!254 = metadata !{metadata !209, metadata !246, metadata !255}
!255 = metadata !{i32 786454, null, metadata !"half", metadata !118, i32 54, i64 0, i64 0, i64 0, i32 0, metadata !256} ; [ DW_TAG_typedef ]
!256 = metadata !{i32 786468, null, metadata !"half", null, i32 0, i64 16, i64 16, i64 0, i32 0, i32 4} ; [ DW_TAG_base_type ]
!257 = metadata !{i32 786478, i32 0, metadata !117, metadata !"rawBitsToDouble", metadata !"rawBitsToDouble", metadata !"_ZNK13ap_fixed_baseILi24ELi12ELb0EL9ap_q_mode5EL9ap_o_mode3ELi0EE15rawBitsToDoubleEy", metadata !118, i32 874, metadata !258, i1 false, i1 false, i32 0, i32 0, null, i32 256, i1 false, null, null, i32 0, metadata !130, i32 874} ; [ DW_TAG_subprogram ]
!258 = metadata !{i32 786453, i32 0, metadata !"", i32 0, i32 0, i64 0, i64 0, i64 0, i32 0, null, metadata !259, i32 0, i32 0} ; [ DW_TAG_subroutine_type ]
!259 = metadata !{metadata !247, metadata !246, metadata !234}
!260 = metadata !{i32 786478, i32 0, metadata !117, metadata !"rawBitsToFloat", metadata !"rawBitsToFloat", metadata !"_ZNK13ap_fixed_baseILi24ELi12ELb0EL9ap_q_mode5EL9ap_o_mode3ELi0EE14rawBitsToFloatEj", metadata !118, i32 883, metadata !261, i1 false, i1 false, i32 0, i32 0, null, i32 256, i1 false, null, null, i32 0, metadata !130, i32 883} ; [ DW_TAG_subprogram ]
!261 = metadata !{i32 786453, i32 0, metadata !"", i32 0, i32 0, i64 0, i64 0, i64 0, i32 0, null, metadata !262, i32 0, i32 0} ; [ DW_TAG_subroutine_type ]
!262 = metadata !{metadata !251, metadata !246, metadata !216}
!263 = metadata !{i32 786478, i32 0, metadata !117, metadata !"rawBitsToHalf", metadata !"rawBitsToHalf", metadata !"_ZNK13ap_fixed_baseILi24ELi12ELb0EL9ap_q_mode5EL9ap_o_mode3ELi0EE13rawBitsToHalfEt", metadata !118, i32 892, metadata !264, i1 false, i1 false, i32 0, i32 0, null, i32 256, i1 false, null, null, i32 0, metadata !130, i32 892} ; [ DW_TAG_subprogram ]
!264 = metadata !{i32 786453, i32 0, metadata !"", i32 0, i32 0, i64 0, i64 0, i64 0, i32 0, null, metadata !265, i32 0, i32 0} ; [ DW_TAG_subroutine_type ]
!265 = metadata !{metadata !255, metadata !246, metadata !209}
!266 = metadata !{i32 786478, i32 0, metadata !117, metadata !"ap_fixed_base", metadata !"ap_fixed_base", metadata !"", metadata !118, i32 901, metadata !267, i1 false, i1 false, i32 0, i32 0, null, i32 256, i1 false, null, null, i32 0, metadata !130, i32 901} ; [ DW_TAG_subprogram ]
!267 = metadata !{i32 786453, i32 0, metadata !"", i32 0, i32 0, i64 0, i64 0, i64 0, i32 0, null, metadata !268, i32 0, i32 0} ; [ DW_TAG_subroutine_type ]
!268 = metadata !{null, metadata !145, metadata !247}
!269 = metadata !{i32 786478, i32 0, metadata !117, metadata !"ap_fixed_base", metadata !"ap_fixed_base", metadata !"", metadata !118, i32 1014, metadata !270, i1 false, i1 false, i32 0, i32 0, null, i32 256, i1 false, null, null, i32 0, metadata !130, i32 1014} ; [ DW_TAG_subprogram ]
!270 = metadata !{i32 786453, i32 0, metadata !"", i32 0, i32 0, i64 0, i64 0, i64 0, i32 0, null, metadata !271, i32 0, i32 0} ; [ DW_TAG_subroutine_type ]
!271 = metadata !{null, metadata !145, metadata !251}
!272 = metadata !{i32 786478, i32 0, metadata !117, metadata !"ap_fixed_base", metadata !"ap_fixed_base", metadata !"", metadata !118, i32 1018, metadata !273, i1 false, i1 false, i32 0, i32 0, null, i32 256, i1 false, null, null, i32 0, metadata !130, i32 1018} ; [ DW_TAG_subprogram ]
!273 = metadata !{i32 786453, i32 0, metadata !"", i32 0, i32 0, i64 0, i64 0, i64 0, i32 0, null, metadata !274, i32 0, i32 0} ; [ DW_TAG_subroutine_type ]
!274 = metadata !{null, metadata !145, metadata !255}
!275 = metadata !{i32 786478, i32 0, metadata !117, metadata !"operator=", metadata !"operator=", metadata !"_ZN13ap_fixed_baseILi24ELi12ELb0EL9ap_q_mode5EL9ap_o_mode3ELi0EEaSERKS2_", metadata !118, i32 1022, metadata !276, i1 false, i1 false, i32 0, i32 0, null, i32 256, i1 false, null, null, i32 0, metadata !130, i32 1022} ; [ DW_TAG_subprogram ]
!276 = metadata !{i32 786453, i32 0, metadata !"", i32 0, i32 0, i64 0, i64 0, i64 0, i32 0, null, metadata !277, i32 0, i32 0} ; [ DW_TAG_subroutine_type ]
!277 = metadata !{metadata !278, metadata !145, metadata !155}
!278 = metadata !{i32 786448, null, null, null, i32 0, i64 0, i64 0, i64 0, i32 0, metadata !117} ; [ DW_TAG_reference_type ]
!279 = metadata !{i32 786478, i32 0, metadata !117, metadata !"operator=", metadata !"operator=", metadata !"_ZN13ap_fixed_baseILi24ELi12ELb0EL9ap_q_mode5EL9ap_o_mode3ELi0EEaSERVKS2_", metadata !118, i32 1029, metadata !280, i1 false, i1 false, i32 0, i32 0, null, i32 256, i1 false, null, null, i32 0, metadata !130, i32 1029} ; [ DW_TAG_subprogram ]
!280 = metadata !{i32 786453, i32 0, metadata !"", i32 0, i32 0, i64 0, i64 0, i64 0, i32 0, null, metadata !281, i32 0, i32 0} ; [ DW_TAG_subroutine_type ]
!281 = metadata !{metadata !278, metadata !145, metadata !184}
!282 = metadata !{i32 786478, i32 0, metadata !117, metadata !"operator=", metadata !"operator=", metadata !"_ZNV13ap_fixed_baseILi24ELi12ELb0EL9ap_q_mode5EL9ap_o_mode3ELi0EEaSERKS2_", metadata !118, i32 1036, metadata !283, i1 false, i1 false, i32 0, i32 0, null, i32 256, i1 false, null, null, i32 0, metadata !130, i32 1036} ; [ DW_TAG_subprogram ]
!283 = metadata !{i32 786453, i32 0, metadata !"", i32 0, i32 0, i64 0, i64 0, i64 0, i32 0, null, metadata !284, i32 0, i32 0} ; [ DW_TAG_subroutine_type ]
!284 = metadata !{null, metadata !285, metadata !155}
!285 = metadata !{i32 786447, i32 0, metadata !"", i32 0, i32 0, i64 32, i64 32, i64 0, i32 64, metadata !186} ; [ DW_TAG_pointer_type ]
!286 = metadata !{i32 786478, i32 0, metadata !117, metadata !"operator=", metadata !"operator=", metadata !"_ZNV13ap_fixed_baseILi24ELi12ELb0EL9ap_q_mode5EL9ap_o_mode3ELi0EEaSERVKS2_", metadata !118, i32 1042, metadata !287, i1 false, i1 false, i32 0, i32 0, null, i32 256, i1 false, null, null, i32 0, metadata !130, i32 1042} ; [ DW_TAG_subprogram ]
!287 = metadata !{i32 786453, i32 0, metadata !"", i32 0, i32 0, i64 0, i64 0, i64 0, i32 0, null, metadata !288, i32 0, i32 0} ; [ DW_TAG_subroutine_type ]
!288 = metadata !{null, metadata !285, metadata !184}
!289 = metadata !{i32 786478, i32 0, metadata !117, metadata !"setBits", metadata !"setBits", metadata !"_ZN13ap_fixed_baseILi24ELi12ELb0EL9ap_q_mode5EL9ap_o_mode3ELi0EE7setBitsEy", metadata !118, i32 1051, metadata !290, i1 false, i1 false, i32 0, i32 0, null, i32 256, i1 false, null, null, i32 0, metadata !130, i32 1051} ; [ DW_TAG_subprogram ]
!290 = metadata !{i32 786453, i32 0, metadata !"", i32 0, i32 0, i64 0, i64 0, i64 0, i32 0, null, metadata !291, i32 0, i32 0} ; [ DW_TAG_subroutine_type ]
!291 = metadata !{metadata !278, metadata !145, metadata !234}
!292 = metadata !{i32 786478, i32 0, metadata !117, metadata !"bitsToFixed", metadata !"bitsToFixed", metadata !"_ZN13ap_fixed_baseILi24ELi12ELb0EL9ap_q_mode5EL9ap_o_mode3ELi0EE11bitsToFixedEy", metadata !118, i32 1057, metadata !293, i1 false, i1 false, i32 0, i32 0, null, i32 256, i1 false, null, null, i32 0, metadata !130, i32 1057} ; [ DW_TAG_subprogram ]
!293 = metadata !{i32 786453, i32 0, metadata !"", i32 0, i32 0, i64 0, i64 0, i64 0, i32 0, null, metadata !294, i32 0, i32 0} ; [ DW_TAG_subroutine_type ]
!294 = metadata !{metadata !117, metadata !234}
!295 = metadata !{i32 786478, i32 0, metadata !117, metadata !"to_ap_int_base", metadata !"to_ap_int_base", metadata !"_ZNK13ap_fixed_baseILi24ELi12ELb0EL9ap_q_mode5EL9ap_o_mode3ELi0EE14to_ap_int_baseEb", metadata !118, i32 1066, metadata !296, i1 false, i1 false, i32 0, i32 0, null, i32 256, i1 false, null, null, i32 0, metadata !130, i32 1066} ; [ DW_TAG_subprogram ]
!296 = metadata !{i32 786453, i32 0, metadata !"", i32 0, i32 0, i64 0, i64 0, i64 0, i32 0, null, metadata !297, i32 0, i32 0} ; [ DW_TAG_subroutine_type ]
!297 = metadata !{metadata !298, metadata !246, metadata !141}
!298 = metadata !{i32 786434, null, metadata !"ap_int_base<12, false, true>", metadata !163, i32 1398, i64 16, i64 16, i32 0, i32 0, null, metadata !299, i32 0, null, metadata !565} ; [ DW_TAG_class_type ]
!299 = metadata !{metadata !300, metadata !316, metadata !320, metadata !327, metadata !333, metadata !336, metadata !339, metadata !342, metadata !345, metadata !348, metadata !351, metadata !354, metadata !357, metadata !360, metadata !363, metadata !366, metadata !369, metadata !372, metadata !375, metadata !378, metadata !381, metadata !385, metadata !388, metadata !391, metadata !392, metadata !396, metadata !399, metadata !402, metadata !405, metadata !408, metadata !411, metadata !414, metadata !417, metadata !420, metadata !423, metadata !426, metadata !429, metadata !439, metadata !442, metadata !445, metadata !448, metadata !451, metadata !454, metadata !457, metadata !460, metadata !463, metadata !466, metadata !469, metadata !472, metadata !475, metadata !476, metadata !480, metadata !483, metadata !484, metadata !485, metadata !486, metadata !487, metadata !488, metadata !491, metadata !492, metadata !495, metadata !496, metadata !497, metadata !498, metadata !499, metadata !500, metadata !503, metadata !504, metadata !505, metadata !508, metadata !509, metadata !512, metadata !513, metadata !517, metadata !521, metadata !522, metadata !525, metadata !526, metadata !530, metadata !531, metadata !532, metadata !533, metadata !536, metadata !537, metadata !538, metadata !539, metadata !540, metadata !541, metadata !542, metadata !543, metadata !544, metadata !545, metadata !546, metadata !547, metadata !557, metadata !560, metadata !563, metadata !564}
!300 = metadata !{i32 786460, metadata !298, null, metadata !163, i32 0, i64 0, i64 0, i64 0, i32 0, metadata !301} ; [ DW_TAG_inheritance ]
!301 = metadata !{i32 786434, null, metadata !"ssdm_int<12 + 1024 * 0, false>", metadata !122, i32 14, i64 16, i64 16, i32 0, i32 0, null, metadata !302, i32 0, null, metadata !314} ; [ DW_TAG_class_type ]
!302 = metadata !{metadata !303, metadata !305, metadata !309}
!303 = metadata !{i32 786445, metadata !301, metadata !"V", metadata !122, i32 14, i64 12, i64 16, i64 0, i32 0, metadata !304} ; [ DW_TAG_member ]
!304 = metadata !{i32 786468, null, metadata !"uint12", null, i32 0, i64 12, i64 16, i64 0, i32 0, i32 7} ; [ DW_TAG_base_type ]
!305 = metadata !{i32 786478, i32 0, metadata !301, metadata !"ssdm_int", metadata !"ssdm_int", metadata !"", metadata !122, i32 14, metadata !306, i1 false, i1 false, i32 0, i32 0, null, i32 256, i1 false, null, null, i32 0, metadata !130, i32 14} ; [ DW_TAG_subprogram ]
!306 = metadata !{i32 786453, i32 0, metadata !"", i32 0, i32 0, i64 0, i64 0, i64 0, i32 0, null, metadata !307, i32 0, i32 0} ; [ DW_TAG_subroutine_type ]
!307 = metadata !{null, metadata !308}
!308 = metadata !{i32 786447, i32 0, metadata !"", i32 0, i32 0, i64 32, i64 32, i64 0, i32 64, metadata !301} ; [ DW_TAG_pointer_type ]
!309 = metadata !{i32 786478, i32 0, metadata !301, metadata !"ssdm_int", metadata !"ssdm_int", metadata !"", metadata !122, i32 14, metadata !310, i1 false, i1 false, i32 0, i32 0, null, i32 320, i1 false, null, null, i32 0, metadata !130, i32 14} ; [ DW_TAG_subprogram ]
!310 = metadata !{i32 786453, i32 0, metadata !"", i32 0, i32 0, i64 0, i64 0, i64 0, i32 0, null, metadata !311, i32 0, i32 0} ; [ DW_TAG_subroutine_type ]
!311 = metadata !{null, metadata !308, metadata !312}
!312 = metadata !{i32 786448, null, null, null, i32 0, i64 0, i64 0, i64 0, i32 0, metadata !313} ; [ DW_TAG_reference_type ]
!313 = metadata !{i32 786470, null, metadata !"", null, i32 0, i64 0, i64 0, i64 0, i32 0, metadata !301} ; [ DW_TAG_const_type ]
!314 = metadata !{metadata !315, metadata !140}
!315 = metadata !{i32 786480, null, metadata !"_AP_N", metadata !139, i64 12, null, i32 0, i32 0} ; [ DW_TAG_template_value_parameter ]
!316 = metadata !{i32 786478, i32 0, metadata !298, metadata !"ap_int_base", metadata !"ap_int_base", metadata !"", metadata !163, i32 1439, metadata !317, i1 false, i1 false, i32 0, i32 0, null, i32 256, i1 false, null, null, i32 0, metadata !130, i32 1439} ; [ DW_TAG_subprogram ]
!317 = metadata !{i32 786453, i32 0, metadata !"", i32 0, i32 0, i64 0, i64 0, i64 0, i32 0, null, metadata !318, i32 0, i32 0} ; [ DW_TAG_subroutine_type ]
!318 = metadata !{null, metadata !319}
!319 = metadata !{i32 786447, i32 0, metadata !"", i32 0, i32 0, i64 32, i64 32, i64 0, i32 64, metadata !298} ; [ DW_TAG_pointer_type ]
!320 = metadata !{i32 786478, i32 0, metadata !298, metadata !"ap_int_base<12, false>", metadata !"ap_int_base<12, false>", metadata !"", metadata !163, i32 1451, metadata !321, i1 false, i1 false, i32 0, i32 0, null, i32 256, i1 false, null, metadata !325, i32 0, metadata !130, i32 1451} ; [ DW_TAG_subprogram ]
!321 = metadata !{i32 786453, i32 0, metadata !"", i32 0, i32 0, i64 0, i64 0, i64 0, i32 0, null, metadata !322, i32 0, i32 0} ; [ DW_TAG_subroutine_type ]
!322 = metadata !{null, metadata !319, metadata !323}
!323 = metadata !{i32 786448, null, null, null, i32 0, i64 0, i64 0, i64 0, i32 0, metadata !324} ; [ DW_TAG_reference_type ]
!324 = metadata !{i32 786470, null, metadata !"", null, i32 0, i64 0, i64 0, i64 0, i32 0, metadata !298} ; [ DW_TAG_const_type ]
!325 = metadata !{metadata !326, metadata !160}
!326 = metadata !{i32 786480, null, metadata !"_AP_W2", metadata !139, i64 12, null, i32 0, i32 0} ; [ DW_TAG_template_value_parameter ]
!327 = metadata !{i32 786478, i32 0, metadata !298, metadata !"ap_int_base<12, false>", metadata !"ap_int_base<12, false>", metadata !"", metadata !163, i32 1454, metadata !328, i1 false, i1 false, i32 0, i32 0, null, i32 256, i1 false, null, metadata !325, i32 0, metadata !130, i32 1454} ; [ DW_TAG_subprogram ]
!328 = metadata !{i32 786453, i32 0, metadata !"", i32 0, i32 0, i64 0, i64 0, i64 0, i32 0, null, metadata !329, i32 0, i32 0} ; [ DW_TAG_subroutine_type ]
!329 = metadata !{null, metadata !319, metadata !330}
!330 = metadata !{i32 786448, null, null, null, i32 0, i64 0, i64 0, i64 0, i32 0, metadata !331} ; [ DW_TAG_reference_type ]
!331 = metadata !{i32 786470, null, metadata !"", null, i32 0, i64 0, i64 0, i64 0, i32 0, metadata !332} ; [ DW_TAG_const_type ]
!332 = metadata !{i32 786485, null, metadata !"", null, i32 0, i64 0, i64 0, i64 0, i32 0, metadata !298} ; [ DW_TAG_volatile_type ]
!333 = metadata !{i32 786478, i32 0, metadata !298, metadata !"ap_int_base", metadata !"ap_int_base", metadata !"", metadata !163, i32 1461, metadata !334, i1 false, i1 false, i32 0, i32 0, null, i32 384, i1 false, null, null, i32 0, metadata !130, i32 1461} ; [ DW_TAG_subprogram ]
!334 = metadata !{i32 786453, i32 0, metadata !"", i32 0, i32 0, i64 0, i64 0, i64 0, i32 0, null, metadata !335, i32 0, i32 0} ; [ DW_TAG_subroutine_type ]
!335 = metadata !{null, metadata !319, metadata !141}
!336 = metadata !{i32 786478, i32 0, metadata !298, metadata !"ap_int_base", metadata !"ap_int_base", metadata !"", metadata !163, i32 1462, metadata !337, i1 false, i1 false, i32 0, i32 0, null, i32 384, i1 false, null, null, i32 0, metadata !130, i32 1462} ; [ DW_TAG_subprogram ]
!337 = metadata !{i32 786453, i32 0, metadata !"", i32 0, i32 0, i64 0, i64 0, i64 0, i32 0, null, metadata !338, i32 0, i32 0} ; [ DW_TAG_subroutine_type ]
!338 = metadata !{null, metadata !319, metadata !197}
!339 = metadata !{i32 786478, i32 0, metadata !298, metadata !"ap_int_base", metadata !"ap_int_base", metadata !"", metadata !163, i32 1463, metadata !340, i1 false, i1 false, i32 0, i32 0, null, i32 384, i1 false, null, null, i32 0, metadata !130, i32 1463} ; [ DW_TAG_subprogram ]
!340 = metadata !{i32 786453, i32 0, metadata !"", i32 0, i32 0, i64 0, i64 0, i64 0, i32 0, null, metadata !341, i32 0, i32 0} ; [ DW_TAG_subroutine_type ]
!341 = metadata !{null, metadata !319, metadata !201}
!342 = metadata !{i32 786478, i32 0, metadata !298, metadata !"ap_int_base", metadata !"ap_int_base", metadata !"", metadata !163, i32 1464, metadata !343, i1 false, i1 false, i32 0, i32 0, null, i32 384, i1 false, null, null, i32 0, metadata !130, i32 1464} ; [ DW_TAG_subprogram ]
!343 = metadata !{i32 786453, i32 0, metadata !"", i32 0, i32 0, i64 0, i64 0, i64 0, i32 0, null, metadata !344, i32 0, i32 0} ; [ DW_TAG_subroutine_type ]
!344 = metadata !{null, metadata !319, metadata !205}
!345 = metadata !{i32 786478, i32 0, metadata !298, metadata !"ap_int_base", metadata !"ap_int_base", metadata !"", metadata !163, i32 1465, metadata !346, i1 false, i1 false, i32 0, i32 0, null, i32 384, i1 false, null, null, i32 0, metadata !130, i32 1465} ; [ DW_TAG_subprogram ]
!346 = metadata !{i32 786453, i32 0, metadata !"", i32 0, i32 0, i64 0, i64 0, i64 0, i32 0, null, metadata !347, i32 0, i32 0} ; [ DW_TAG_subroutine_type ]
!347 = metadata !{null, metadata !319, metadata !209}
!348 = metadata !{i32 786478, i32 0, metadata !298, metadata !"ap_int_base", metadata !"ap_int_base", metadata !"", metadata !163, i32 1466, metadata !349, i1 false, i1 false, i32 0, i32 0, null, i32 384, i1 false, null, null, i32 0, metadata !130, i32 1466} ; [ DW_TAG_subprogram ]
!349 = metadata !{i32 786453, i32 0, metadata !"", i32 0, i32 0, i64 0, i64 0, i64 0, i32 0, null, metadata !350, i32 0, i32 0} ; [ DW_TAG_subroutine_type ]
!350 = metadata !{null, metadata !319, metadata !139}
!351 = metadata !{i32 786478, i32 0, metadata !298, metadata !"ap_int_base", metadata !"ap_int_base", metadata !"", metadata !163, i32 1467, metadata !352, i1 false, i1 false, i32 0, i32 0, null, i32 384, i1 false, null, null, i32 0, metadata !130, i32 1467} ; [ DW_TAG_subprogram ]
!352 = metadata !{i32 786453, i32 0, metadata !"", i32 0, i32 0, i64 0, i64 0, i64 0, i32 0, null, metadata !353, i32 0, i32 0} ; [ DW_TAG_subroutine_type ]
!353 = metadata !{null, metadata !319, metadata !216}
!354 = metadata !{i32 786478, i32 0, metadata !298, metadata !"ap_int_base", metadata !"ap_int_base", metadata !"", metadata !163, i32 1468, metadata !355, i1 false, i1 false, i32 0, i32 0, null, i32 384, i1 false, null, null, i32 0, metadata !130, i32 1468} ; [ DW_TAG_subprogram ]
!355 = metadata !{i32 786453, i32 0, metadata !"", i32 0, i32 0, i64 0, i64 0, i64 0, i32 0, null, metadata !356, i32 0, i32 0} ; [ DW_TAG_subroutine_type ]
!356 = metadata !{null, metadata !319, metadata !220}
!357 = metadata !{i32 786478, i32 0, metadata !298, metadata !"ap_int_base", metadata !"ap_int_base", metadata !"", metadata !163, i32 1469, metadata !358, i1 false, i1 false, i32 0, i32 0, null, i32 384, i1 false, null, null, i32 0, metadata !130, i32 1469} ; [ DW_TAG_subprogram ]
!358 = metadata !{i32 786453, i32 0, metadata !"", i32 0, i32 0, i64 0, i64 0, i64 0, i32 0, null, metadata !359, i32 0, i32 0} ; [ DW_TAG_subroutine_type ]
!359 = metadata !{null, metadata !319, metadata !224}
!360 = metadata !{i32 786478, i32 0, metadata !298, metadata !"ap_int_base", metadata !"ap_int_base", metadata !"", metadata !163, i32 1470, metadata !361, i1 false, i1 false, i32 0, i32 0, null, i32 384, i1 false, null, null, i32 0, metadata !130, i32 1470} ; [ DW_TAG_subprogram ]
!361 = metadata !{i32 786453, i32 0, metadata !"", i32 0, i32 0, i64 0, i64 0, i64 0, i32 0, null, metadata !362, i32 0, i32 0} ; [ DW_TAG_subroutine_type ]
!362 = metadata !{null, metadata !319, metadata !228}
!363 = metadata !{i32 786478, i32 0, metadata !298, metadata !"ap_int_base", metadata !"ap_int_base", metadata !"", metadata !163, i32 1471, metadata !364, i1 false, i1 false, i32 0, i32 0, null, i32 384, i1 false, null, null, i32 0, metadata !130, i32 1471} ; [ DW_TAG_subprogram ]
!364 = metadata !{i32 786453, i32 0, metadata !"", i32 0, i32 0, i64 0, i64 0, i64 0, i32 0, null, metadata !365, i32 0, i32 0} ; [ DW_TAG_subroutine_type ]
!365 = metadata !{null, metadata !319, metadata !233}
!366 = metadata !{i32 786478, i32 0, metadata !298, metadata !"ap_int_base", metadata !"ap_int_base", metadata !"", metadata !163, i32 1472, metadata !367, i1 false, i1 false, i32 0, i32 0, null, i32 384, i1 false, null, null, i32 0, metadata !130, i32 1472} ; [ DW_TAG_subprogram ]
!367 = metadata !{i32 786453, i32 0, metadata !"", i32 0, i32 0, i64 0, i64 0, i64 0, i32 0, null, metadata !368, i32 0, i32 0} ; [ DW_TAG_subroutine_type ]
!368 = metadata !{null, metadata !319, metadata !255}
!369 = metadata !{i32 786478, i32 0, metadata !298, metadata !"ap_int_base", metadata !"ap_int_base", metadata !"", metadata !163, i32 1473, metadata !370, i1 false, i1 false, i32 0, i32 0, null, i32 384, i1 false, null, null, i32 0, metadata !130, i32 1473} ; [ DW_TAG_subprogram ]
!370 = metadata !{i32 786453, i32 0, metadata !"", i32 0, i32 0, i64 0, i64 0, i64 0, i32 0, null, metadata !371, i32 0, i32 0} ; [ DW_TAG_subroutine_type ]
!371 = metadata !{null, metadata !319, metadata !251}
!372 = metadata !{i32 786478, i32 0, metadata !298, metadata !"ap_int_base", metadata !"ap_int_base", metadata !"", metadata !163, i32 1474, metadata !373, i1 false, i1 false, i32 0, i32 0, null, i32 384, i1 false, null, null, i32 0, metadata !130, i32 1474} ; [ DW_TAG_subprogram ]
!373 = metadata !{i32 786453, i32 0, metadata !"", i32 0, i32 0, i64 0, i64 0, i64 0, i32 0, null, metadata !374, i32 0, i32 0} ; [ DW_TAG_subroutine_type ]
!374 = metadata !{null, metadata !319, metadata !247}
!375 = metadata !{i32 786478, i32 0, metadata !298, metadata !"ap_int_base", metadata !"ap_int_base", metadata !"", metadata !163, i32 1501, metadata !376, i1 false, i1 false, i32 0, i32 0, null, i32 256, i1 false, null, null, i32 0, metadata !130, i32 1501} ; [ DW_TAG_subprogram ]
!376 = metadata !{i32 786453, i32 0, metadata !"", i32 0, i32 0, i64 0, i64 0, i64 0, i32 0, null, metadata !377, i32 0, i32 0} ; [ DW_TAG_subroutine_type ]
!377 = metadata !{null, metadata !319, metadata !238}
!378 = metadata !{i32 786478, i32 0, metadata !298, metadata !"ap_int_base", metadata !"ap_int_base", metadata !"", metadata !163, i32 1508, metadata !379, i1 false, i1 false, i32 0, i32 0, null, i32 256, i1 false, null, null, i32 0, metadata !130, i32 1508} ; [ DW_TAG_subprogram ]
!379 = metadata !{i32 786453, i32 0, metadata !"", i32 0, i32 0, i64 0, i64 0, i64 0, i32 0, null, metadata !380, i32 0, i32 0} ; [ DW_TAG_subroutine_type ]
!380 = metadata !{null, metadata !319, metadata !238, metadata !197}
!381 = metadata !{i32 786478, i32 0, metadata !298, metadata !"read", metadata !"read", metadata !"_ZNV11ap_int_baseILi12ELb0ELb1EE4readEv", metadata !163, i32 1529, metadata !382, i1 false, i1 false, i32 0, i32 0, null, i32 256, i1 false, null, null, i32 0, metadata !130, i32 1529} ; [ DW_TAG_subprogram ]
!382 = metadata !{i32 786453, i32 0, metadata !"", i32 0, i32 0, i64 0, i64 0, i64 0, i32 0, null, metadata !383, i32 0, i32 0} ; [ DW_TAG_subroutine_type ]
!383 = metadata !{metadata !298, metadata !384}
!384 = metadata !{i32 786447, i32 0, metadata !"", i32 0, i32 0, i64 32, i64 32, i64 0, i32 64, metadata !332} ; [ DW_TAG_pointer_type ]
!385 = metadata !{i32 786478, i32 0, metadata !298, metadata !"write", metadata !"write", metadata !"_ZNV11ap_int_baseILi12ELb0ELb1EE5writeERKS0_", metadata !163, i32 1535, metadata !386, i1 false, i1 false, i32 0, i32 0, null, i32 256, i1 false, null, null, i32 0, metadata !130, i32 1535} ; [ DW_TAG_subprogram ]
!386 = metadata !{i32 786453, i32 0, metadata !"", i32 0, i32 0, i64 0, i64 0, i64 0, i32 0, null, metadata !387, i32 0, i32 0} ; [ DW_TAG_subroutine_type ]
!387 = metadata !{null, metadata !384, metadata !323}
!388 = metadata !{i32 786478, i32 0, metadata !298, metadata !"operator=", metadata !"operator=", metadata !"_ZNV11ap_int_baseILi12ELb0ELb1EEaSERVKS0_", metadata !163, i32 1547, metadata !389, i1 false, i1 false, i32 0, i32 0, null, i32 256, i1 false, null, null, i32 0, metadata !130, i32 1547} ; [ DW_TAG_subprogram ]
!389 = metadata !{i32 786453, i32 0, metadata !"", i32 0, i32 0, i64 0, i64 0, i64 0, i32 0, null, metadata !390, i32 0, i32 0} ; [ DW_TAG_subroutine_type ]
!390 = metadata !{null, metadata !384, metadata !330}
!391 = metadata !{i32 786478, i32 0, metadata !298, metadata !"operator=", metadata !"operator=", metadata !"_ZNV11ap_int_baseILi12ELb0ELb1EEaSERKS0_", metadata !163, i32 1556, metadata !386, i1 false, i1 false, i32 0, i32 0, null, i32 256, i1 false, null, null, i32 0, metadata !130, i32 1556} ; [ DW_TAG_subprogram ]
!392 = metadata !{i32 786478, i32 0, metadata !298, metadata !"operator=", metadata !"operator=", metadata !"_ZN11ap_int_baseILi12ELb0ELb1EEaSERVKS0_", metadata !163, i32 1579, metadata !393, i1 false, i1 false, i32 0, i32 0, null, i32 256, i1 false, null, null, i32 0, metadata !130, i32 1579} ; [ DW_TAG_subprogram ]
!393 = metadata !{i32 786453, i32 0, metadata !"", i32 0, i32 0, i64 0, i64 0, i64 0, i32 0, null, metadata !394, i32 0, i32 0} ; [ DW_TAG_subroutine_type ]
!394 = metadata !{metadata !395, metadata !319, metadata !330}
!395 = metadata !{i32 786448, null, null, null, i32 0, i64 0, i64 0, i64 0, i32 0, metadata !298} ; [ DW_TAG_reference_type ]
!396 = metadata !{i32 786478, i32 0, metadata !298, metadata !"operator=", metadata !"operator=", metadata !"_ZN11ap_int_baseILi12ELb0ELb1EEaSERKS0_", metadata !163, i32 1584, metadata !397, i1 false, i1 false, i32 0, i32 0, null, i32 256, i1 false, null, null, i32 0, metadata !130, i32 1584} ; [ DW_TAG_subprogram ]
!397 = metadata !{i32 786453, i32 0, metadata !"", i32 0, i32 0, i64 0, i64 0, i64 0, i32 0, null, metadata !398, i32 0, i32 0} ; [ DW_TAG_subroutine_type ]
!398 = metadata !{metadata !395, metadata !319, metadata !323}
!399 = metadata !{i32 786478, i32 0, metadata !298, metadata !"operator=", metadata !"operator=", metadata !"_ZN11ap_int_baseILi12ELb0ELb1EEaSEPKc", metadata !163, i32 1588, metadata !400, i1 false, i1 false, i32 0, i32 0, null, i32 256, i1 false, null, null, i32 0, metadata !130, i32 1588} ; [ DW_TAG_subprogram ]
!400 = metadata !{i32 786453, i32 0, metadata !"", i32 0, i32 0, i64 0, i64 0, i64 0, i32 0, null, metadata !401, i32 0, i32 0} ; [ DW_TAG_subroutine_type ]
!401 = metadata !{metadata !395, metadata !319, metadata !238}
!402 = metadata !{i32 786478, i32 0, metadata !298, metadata !"set", metadata !"set", metadata !"_ZN11ap_int_baseILi12ELb0ELb1EE3setEPKca", metadata !163, i32 1596, metadata !403, i1 false, i1 false, i32 0, i32 0, null, i32 256, i1 false, null, null, i32 0, metadata !130, i32 1596} ; [ DW_TAG_subprogram ]
!403 = metadata !{i32 786453, i32 0, metadata !"", i32 0, i32 0, i64 0, i64 0, i64 0, i32 0, null, metadata !404, i32 0, i32 0} ; [ DW_TAG_subroutine_type ]
!404 = metadata !{metadata !395, metadata !319, metadata !238, metadata !197}
!405 = metadata !{i32 786478, i32 0, metadata !298, metadata !"operator=", metadata !"operator=", metadata !"_ZN11ap_int_baseILi12ELb0ELb1EEaSEa", metadata !163, i32 1610, metadata !406, i1 false, i1 false, i32 0, i32 0, null, i32 256, i1 false, null, null, i32 0, metadata !130, i32 1610} ; [ DW_TAG_subprogram ]
!406 = metadata !{i32 786453, i32 0, metadata !"", i32 0, i32 0, i64 0, i64 0, i64 0, i32 0, null, metadata !407, i32 0, i32 0} ; [ DW_TAG_subroutine_type ]
!407 = metadata !{metadata !395, metadata !319, metadata !197}
!408 = metadata !{i32 786478, i32 0, metadata !298, metadata !"operator=", metadata !"operator=", metadata !"_ZN11ap_int_baseILi12ELb0ELb1EEaSEh", metadata !163, i32 1611, metadata !409, i1 false, i1 false, i32 0, i32 0, null, i32 256, i1 false, null, null, i32 0, metadata !130, i32 1611} ; [ DW_TAG_subprogram ]
!409 = metadata !{i32 786453, i32 0, metadata !"", i32 0, i32 0, i64 0, i64 0, i64 0, i32 0, null, metadata !410, i32 0, i32 0} ; [ DW_TAG_subroutine_type ]
!410 = metadata !{metadata !395, metadata !319, metadata !201}
!411 = metadata !{i32 786478, i32 0, metadata !298, metadata !"operator=", metadata !"operator=", metadata !"_ZN11ap_int_baseILi12ELb0ELb1EEaSEs", metadata !163, i32 1612, metadata !412, i1 false, i1 false, i32 0, i32 0, null, i32 256, i1 false, null, null, i32 0, metadata !130, i32 1612} ; [ DW_TAG_subprogram ]
!412 = metadata !{i32 786453, i32 0, metadata !"", i32 0, i32 0, i64 0, i64 0, i64 0, i32 0, null, metadata !413, i32 0, i32 0} ; [ DW_TAG_subroutine_type ]
!413 = metadata !{metadata !395, metadata !319, metadata !205}
!414 = metadata !{i32 786478, i32 0, metadata !298, metadata !"operator=", metadata !"operator=", metadata !"_ZN11ap_int_baseILi12ELb0ELb1EEaSEt", metadata !163, i32 1613, metadata !415, i1 false, i1 false, i32 0, i32 0, null, i32 256, i1 false, null, null, i32 0, metadata !130, i32 1613} ; [ DW_TAG_subprogram ]
!415 = metadata !{i32 786453, i32 0, metadata !"", i32 0, i32 0, i64 0, i64 0, i64 0, i32 0, null, metadata !416, i32 0, i32 0} ; [ DW_TAG_subroutine_type ]
!416 = metadata !{metadata !395, metadata !319, metadata !209}
!417 = metadata !{i32 786478, i32 0, metadata !298, metadata !"operator=", metadata !"operator=", metadata !"_ZN11ap_int_baseILi12ELb0ELb1EEaSEi", metadata !163, i32 1614, metadata !418, i1 false, i1 false, i32 0, i32 0, null, i32 256, i1 false, null, null, i32 0, metadata !130, i32 1614} ; [ DW_TAG_subprogram ]
!418 = metadata !{i32 786453, i32 0, metadata !"", i32 0, i32 0, i64 0, i64 0, i64 0, i32 0, null, metadata !419, i32 0, i32 0} ; [ DW_TAG_subroutine_type ]
!419 = metadata !{metadata !395, metadata !319, metadata !139}
!420 = metadata !{i32 786478, i32 0, metadata !298, metadata !"operator=", metadata !"operator=", metadata !"_ZN11ap_int_baseILi12ELb0ELb1EEaSEj", metadata !163, i32 1615, metadata !421, i1 false, i1 false, i32 0, i32 0, null, i32 256, i1 false, null, null, i32 0, metadata !130, i32 1615} ; [ DW_TAG_subprogram ]
!421 = metadata !{i32 786453, i32 0, metadata !"", i32 0, i32 0, i64 0, i64 0, i64 0, i32 0, null, metadata !422, i32 0, i32 0} ; [ DW_TAG_subroutine_type ]
!422 = metadata !{metadata !395, metadata !319, metadata !216}
!423 = metadata !{i32 786478, i32 0, metadata !298, metadata !"operator=", metadata !"operator=", metadata !"_ZN11ap_int_baseILi12ELb0ELb1EEaSEx", metadata !163, i32 1616, metadata !424, i1 false, i1 false, i32 0, i32 0, null, i32 256, i1 false, null, null, i32 0, metadata !130, i32 1616} ; [ DW_TAG_subprogram ]
!424 = metadata !{i32 786453, i32 0, metadata !"", i32 0, i32 0, i64 0, i64 0, i64 0, i32 0, null, metadata !425, i32 0, i32 0} ; [ DW_TAG_subroutine_type ]
!425 = metadata !{metadata !395, metadata !319, metadata !228}
!426 = metadata !{i32 786478, i32 0, metadata !298, metadata !"operator=", metadata !"operator=", metadata !"_ZN11ap_int_baseILi12ELb0ELb1EEaSEy", metadata !163, i32 1617, metadata !427, i1 false, i1 false, i32 0, i32 0, null, i32 256, i1 false, null, null, i32 0, metadata !130, i32 1617} ; [ DW_TAG_subprogram ]
!427 = metadata !{i32 786453, i32 0, metadata !"", i32 0, i32 0, i64 0, i64 0, i64 0, i32 0, null, metadata !428, i32 0, i32 0} ; [ DW_TAG_subroutine_type ]
!428 = metadata !{metadata !395, metadata !319, metadata !233}
!429 = metadata !{i32 786478, i32 0, metadata !298, metadata !"operator unsigned short", metadata !"operator unsigned short", metadata !"_ZNK11ap_int_baseILi12ELb0ELb1EEcvtEv", metadata !163, i32 1655, metadata !430, i1 false, i1 false, i32 0, i32 0, null, i32 256, i1 false, null, null, i32 0, metadata !130, i32 1655} ; [ DW_TAG_subprogram ]
!430 = metadata !{i32 786453, i32 0, metadata !"", i32 0, i32 0, i64 0, i64 0, i64 0, i32 0, null, metadata !431, i32 0, i32 0} ; [ DW_TAG_subroutine_type ]
!431 = metadata !{metadata !432, metadata !438}
!432 = metadata !{i32 786454, metadata !298, metadata !"RetType", metadata !163, i32 1403, i64 0, i64 0, i64 0, i32 0, metadata !433} ; [ DW_TAG_typedef ]
!433 = metadata !{i32 786454, metadata !434, metadata !"Type", metadata !163, i32 1377, i64 0, i64 0, i64 0, i32 0, metadata !209} ; [ DW_TAG_typedef ]
!434 = metadata !{i32 786434, null, metadata !"retval<2, false>", metadata !163, i32 1376, i64 8, i64 8, i32 0, i32 0, null, metadata !435, i32 0, null, metadata !436} ; [ DW_TAG_class_type ]
!435 = metadata !{i32 0}
!436 = metadata !{metadata !437, metadata !140}
!437 = metadata !{i32 786480, null, metadata !"_AP_N", metadata !139, i64 2, null, i32 0, i32 0} ; [ DW_TAG_template_value_parameter ]
!438 = metadata !{i32 786447, i32 0, metadata !"", i32 0, i32 0, i64 32, i64 32, i64 0, i32 64, metadata !324} ; [ DW_TAG_pointer_type ]
!439 = metadata !{i32 786478, i32 0, metadata !298, metadata !"to_bool", metadata !"to_bool", metadata !"_ZNK11ap_int_baseILi12ELb0ELb1EE7to_boolEv", metadata !163, i32 1661, metadata !440, i1 false, i1 false, i32 0, i32 0, null, i32 256, i1 false, null, null, i32 0, metadata !130, i32 1661} ; [ DW_TAG_subprogram ]
!440 = metadata !{i32 786453, i32 0, metadata !"", i32 0, i32 0, i64 0, i64 0, i64 0, i32 0, null, metadata !441, i32 0, i32 0} ; [ DW_TAG_subroutine_type ]
!441 = metadata !{metadata !141, metadata !438}
!442 = metadata !{i32 786478, i32 0, metadata !298, metadata !"to_uchar", metadata !"to_uchar", metadata !"_ZNK11ap_int_baseILi12ELb0ELb1EE8to_ucharEv", metadata !163, i32 1662, metadata !443, i1 false, i1 false, i32 0, i32 0, null, i32 256, i1 false, null, null, i32 0, metadata !130, i32 1662} ; [ DW_TAG_subprogram ]
!443 = metadata !{i32 786453, i32 0, metadata !"", i32 0, i32 0, i64 0, i64 0, i64 0, i32 0, null, metadata !444, i32 0, i32 0} ; [ DW_TAG_subroutine_type ]
!444 = metadata !{metadata !201, metadata !438}
!445 = metadata !{i32 786478, i32 0, metadata !298, metadata !"to_char", metadata !"to_char", metadata !"_ZNK11ap_int_baseILi12ELb0ELb1EE7to_charEv", metadata !163, i32 1663, metadata !446, i1 false, i1 false, i32 0, i32 0, null, i32 256, i1 false, null, null, i32 0, metadata !130, i32 1663} ; [ DW_TAG_subprogram ]
!446 = metadata !{i32 786453, i32 0, metadata !"", i32 0, i32 0, i64 0, i64 0, i64 0, i32 0, null, metadata !447, i32 0, i32 0} ; [ DW_TAG_subroutine_type ]
!447 = metadata !{metadata !197, metadata !438}
!448 = metadata !{i32 786478, i32 0, metadata !298, metadata !"to_ushort", metadata !"to_ushort", metadata !"_ZNK11ap_int_baseILi12ELb0ELb1EE9to_ushortEv", metadata !163, i32 1664, metadata !449, i1 false, i1 false, i32 0, i32 0, null, i32 256, i1 false, null, null, i32 0, metadata !130, i32 1664} ; [ DW_TAG_subprogram ]
!449 = metadata !{i32 786453, i32 0, metadata !"", i32 0, i32 0, i64 0, i64 0, i64 0, i32 0, null, metadata !450, i32 0, i32 0} ; [ DW_TAG_subroutine_type ]
!450 = metadata !{metadata !209, metadata !438}
!451 = metadata !{i32 786478, i32 0, metadata !298, metadata !"to_short", metadata !"to_short", metadata !"_ZNK11ap_int_baseILi12ELb0ELb1EE8to_shortEv", metadata !163, i32 1665, metadata !452, i1 false, i1 false, i32 0, i32 0, null, i32 256, i1 false, null, null, i32 0, metadata !130, i32 1665} ; [ DW_TAG_subprogram ]
!452 = metadata !{i32 786453, i32 0, metadata !"", i32 0, i32 0, i64 0, i64 0, i64 0, i32 0, null, metadata !453, i32 0, i32 0} ; [ DW_TAG_subroutine_type ]
!453 = metadata !{metadata !205, metadata !438}
!454 = metadata !{i32 786478, i32 0, metadata !298, metadata !"to_int", metadata !"to_int", metadata !"_ZNK11ap_int_baseILi12ELb0ELb1EE6to_intEv", metadata !163, i32 1666, metadata !455, i1 false, i1 false, i32 0, i32 0, null, i32 256, i1 false, null, null, i32 0, metadata !130, i32 1666} ; [ DW_TAG_subprogram ]
!455 = metadata !{i32 786453, i32 0, metadata !"", i32 0, i32 0, i64 0, i64 0, i64 0, i32 0, null, metadata !456, i32 0, i32 0} ; [ DW_TAG_subroutine_type ]
!456 = metadata !{metadata !139, metadata !438}
!457 = metadata !{i32 786478, i32 0, metadata !298, metadata !"to_uint", metadata !"to_uint", metadata !"_ZNK11ap_int_baseILi12ELb0ELb1EE7to_uintEv", metadata !163, i32 1667, metadata !458, i1 false, i1 false, i32 0, i32 0, null, i32 256, i1 false, null, null, i32 0, metadata !130, i32 1667} ; [ DW_TAG_subprogram ]
!458 = metadata !{i32 786453, i32 0, metadata !"", i32 0, i32 0, i64 0, i64 0, i64 0, i32 0, null, metadata !459, i32 0, i32 0} ; [ DW_TAG_subroutine_type ]
!459 = metadata !{metadata !216, metadata !438}
!460 = metadata !{i32 786478, i32 0, metadata !298, metadata !"to_long", metadata !"to_long", metadata !"_ZNK11ap_int_baseILi12ELb0ELb1EE7to_longEv", metadata !163, i32 1668, metadata !461, i1 false, i1 false, i32 0, i32 0, null, i32 256, i1 false, null, null, i32 0, metadata !130, i32 1668} ; [ DW_TAG_subprogram ]
!461 = metadata !{i32 786453, i32 0, metadata !"", i32 0, i32 0, i64 0, i64 0, i64 0, i32 0, null, metadata !462, i32 0, i32 0} ; [ DW_TAG_subroutine_type ]
!462 = metadata !{metadata !220, metadata !438}
!463 = metadata !{i32 786478, i32 0, metadata !298, metadata !"to_ulong", metadata !"to_ulong", metadata !"_ZNK11ap_int_baseILi12ELb0ELb1EE8to_ulongEv", metadata !163, i32 1669, metadata !464, i1 false, i1 false, i32 0, i32 0, null, i32 256, i1 false, null, null, i32 0, metadata !130, i32 1669} ; [ DW_TAG_subprogram ]
!464 = metadata !{i32 786453, i32 0, metadata !"", i32 0, i32 0, i64 0, i64 0, i64 0, i32 0, null, metadata !465, i32 0, i32 0} ; [ DW_TAG_subroutine_type ]
!465 = metadata !{metadata !224, metadata !438}
!466 = metadata !{i32 786478, i32 0, metadata !298, metadata !"to_int64", metadata !"to_int64", metadata !"_ZNK11ap_int_baseILi12ELb0ELb1EE8to_int64Ev", metadata !163, i32 1670, metadata !467, i1 false, i1 false, i32 0, i32 0, null, i32 256, i1 false, null, null, i32 0, metadata !130, i32 1670} ; [ DW_TAG_subprogram ]
!467 = metadata !{i32 786453, i32 0, metadata !"", i32 0, i32 0, i64 0, i64 0, i64 0, i32 0, null, metadata !468, i32 0, i32 0} ; [ DW_TAG_subroutine_type ]
!468 = metadata !{metadata !228, metadata !438}
!469 = metadata !{i32 786478, i32 0, metadata !298, metadata !"to_uint64", metadata !"to_uint64", metadata !"_ZNK11ap_int_baseILi12ELb0ELb1EE9to_uint64Ev", metadata !163, i32 1671, metadata !470, i1 false, i1 false, i32 0, i32 0, null, i32 256, i1 false, null, null, i32 0, metadata !130, i32 1671} ; [ DW_TAG_subprogram ]
!470 = metadata !{i32 786453, i32 0, metadata !"", i32 0, i32 0, i64 0, i64 0, i64 0, i32 0, null, metadata !471, i32 0, i32 0} ; [ DW_TAG_subroutine_type ]
!471 = metadata !{metadata !233, metadata !438}
!472 = metadata !{i32 786478, i32 0, metadata !298, metadata !"to_double", metadata !"to_double", metadata !"_ZNK11ap_int_baseILi12ELb0ELb1EE9to_doubleEv", metadata !163, i32 1672, metadata !473, i1 false, i1 false, i32 0, i32 0, null, i32 256, i1 false, null, null, i32 0, metadata !130, i32 1672} ; [ DW_TAG_subprogram ]
!473 = metadata !{i32 786453, i32 0, metadata !"", i32 0, i32 0, i64 0, i64 0, i64 0, i32 0, null, metadata !474, i32 0, i32 0} ; [ DW_TAG_subroutine_type ]
!474 = metadata !{metadata !247, metadata !438}
!475 = metadata !{i32 786478, i32 0, metadata !298, metadata !"length", metadata !"length", metadata !"_ZNK11ap_int_baseILi12ELb0ELb1EE6lengthEv", metadata !163, i32 1686, metadata !455, i1 false, i1 false, i32 0, i32 0, null, i32 256, i1 false, null, null, i32 0, metadata !130, i32 1686} ; [ DW_TAG_subprogram ]
!476 = metadata !{i32 786478, i32 0, metadata !298, metadata !"length", metadata !"length", metadata !"_ZNVK11ap_int_baseILi12ELb0ELb1EE6lengthEv", metadata !163, i32 1687, metadata !477, i1 false, i1 false, i32 0, i32 0, null, i32 256, i1 false, null, null, i32 0, metadata !130, i32 1687} ; [ DW_TAG_subprogram ]
!477 = metadata !{i32 786453, i32 0, metadata !"", i32 0, i32 0, i64 0, i64 0, i64 0, i32 0, null, metadata !478, i32 0, i32 0} ; [ DW_TAG_subroutine_type ]
!478 = metadata !{metadata !139, metadata !479}
!479 = metadata !{i32 786447, i32 0, metadata !"", i32 0, i32 0, i64 32, i64 32, i64 0, i32 64, metadata !331} ; [ DW_TAG_pointer_type ]
!480 = metadata !{i32 786478, i32 0, metadata !298, metadata !"reverse", metadata !"reverse", metadata !"_ZN11ap_int_baseILi12ELb0ELb1EE7reverseEv", metadata !163, i32 1692, metadata !481, i1 false, i1 false, i32 0, i32 0, null, i32 256, i1 false, null, null, i32 0, metadata !130, i32 1692} ; [ DW_TAG_subprogram ]
!481 = metadata !{i32 786453, i32 0, metadata !"", i32 0, i32 0, i64 0, i64 0, i64 0, i32 0, null, metadata !482, i32 0, i32 0} ; [ DW_TAG_subroutine_type ]
!482 = metadata !{metadata !395, metadata !319}
!483 = metadata !{i32 786478, i32 0, metadata !298, metadata !"iszero", metadata !"iszero", metadata !"_ZNK11ap_int_baseILi12ELb0ELb1EE6iszeroEv", metadata !163, i32 1698, metadata !440, i1 false, i1 false, i32 0, i32 0, null, i32 256, i1 false, null, null, i32 0, metadata !130, i32 1698} ; [ DW_TAG_subprogram ]
!484 = metadata !{i32 786478, i32 0, metadata !298, metadata !"is_zero", metadata !"is_zero", metadata !"_ZNK11ap_int_baseILi12ELb0ELb1EE7is_zeroEv", metadata !163, i32 1703, metadata !440, i1 false, i1 false, i32 0, i32 0, null, i32 256, i1 false, null, null, i32 0, metadata !130, i32 1703} ; [ DW_TAG_subprogram ]
!485 = metadata !{i32 786478, i32 0, metadata !298, metadata !"sign", metadata !"sign", metadata !"_ZNK11ap_int_baseILi12ELb0ELb1EE4signEv", metadata !163, i32 1708, metadata !440, i1 false, i1 false, i32 0, i32 0, null, i32 256, i1 false, null, null, i32 0, metadata !130, i32 1708} ; [ DW_TAG_subprogram ]
!486 = metadata !{i32 786478, i32 0, metadata !298, metadata !"clear", metadata !"clear", metadata !"_ZN11ap_int_baseILi12ELb0ELb1EE5clearEi", metadata !163, i32 1716, metadata !349, i1 false, i1 false, i32 0, i32 0, null, i32 256, i1 false, null, null, i32 0, metadata !130, i32 1716} ; [ DW_TAG_subprogram ]
!487 = metadata !{i32 786478, i32 0, metadata !298, metadata !"invert", metadata !"invert", metadata !"_ZN11ap_int_baseILi12ELb0ELb1EE6invertEi", metadata !163, i32 1722, metadata !349, i1 false, i1 false, i32 0, i32 0, null, i32 256, i1 false, null, null, i32 0, metadata !130, i32 1722} ; [ DW_TAG_subprogram ]
!488 = metadata !{i32 786478, i32 0, metadata !298, metadata !"test", metadata !"test", metadata !"_ZNK11ap_int_baseILi12ELb0ELb1EE4testEi", metadata !163, i32 1730, metadata !489, i1 false, i1 false, i32 0, i32 0, null, i32 256, i1 false, null, null, i32 0, metadata !130, i32 1730} ; [ DW_TAG_subprogram ]
!489 = metadata !{i32 786453, i32 0, metadata !"", i32 0, i32 0, i64 0, i64 0, i64 0, i32 0, null, metadata !490, i32 0, i32 0} ; [ DW_TAG_subroutine_type ]
!490 = metadata !{metadata !141, metadata !438, metadata !139}
!491 = metadata !{i32 786478, i32 0, metadata !298, metadata !"set", metadata !"set", metadata !"_ZN11ap_int_baseILi12ELb0ELb1EE3setEi", metadata !163, i32 1736, metadata !349, i1 false, i1 false, i32 0, i32 0, null, i32 256, i1 false, null, null, i32 0, metadata !130, i32 1736} ; [ DW_TAG_subprogram ]
!492 = metadata !{i32 786478, i32 0, metadata !298, metadata !"set", metadata !"set", metadata !"_ZN11ap_int_baseILi12ELb0ELb1EE3setEib", metadata !163, i32 1742, metadata !493, i1 false, i1 false, i32 0, i32 0, null, i32 256, i1 false, null, null, i32 0, metadata !130, i32 1742} ; [ DW_TAG_subprogram ]
!493 = metadata !{i32 786453, i32 0, metadata !"", i32 0, i32 0, i64 0, i64 0, i64 0, i32 0, null, metadata !494, i32 0, i32 0} ; [ DW_TAG_subroutine_type ]
!494 = metadata !{null, metadata !319, metadata !139, metadata !141}
!495 = metadata !{i32 786478, i32 0, metadata !298, metadata !"lrotate", metadata !"lrotate", metadata !"_ZN11ap_int_baseILi12ELb0ELb1EE7lrotateEi", metadata !163, i32 1749, metadata !349, i1 false, i1 false, i32 0, i32 0, null, i32 256, i1 false, null, null, i32 0, metadata !130, i32 1749} ; [ DW_TAG_subprogram ]
!496 = metadata !{i32 786478, i32 0, metadata !298, metadata !"rrotate", metadata !"rrotate", metadata !"_ZN11ap_int_baseILi12ELb0ELb1EE7rrotateEi", metadata !163, i32 1758, metadata !349, i1 false, i1 false, i32 0, i32 0, null, i32 256, i1 false, null, null, i32 0, metadata !130, i32 1758} ; [ DW_TAG_subprogram ]
!497 = metadata !{i32 786478, i32 0, metadata !298, metadata !"set_bit", metadata !"set_bit", metadata !"_ZN11ap_int_baseILi12ELb0ELb1EE7set_bitEib", metadata !163, i32 1766, metadata !493, i1 false, i1 false, i32 0, i32 0, null, i32 256, i1 false, null, null, i32 0, metadata !130, i32 1766} ; [ DW_TAG_subprogram ]
!498 = metadata !{i32 786478, i32 0, metadata !298, metadata !"get_bit", metadata !"get_bit", metadata !"_ZNK11ap_int_baseILi12ELb0ELb1EE7get_bitEi", metadata !163, i32 1771, metadata !489, i1 false, i1 false, i32 0, i32 0, null, i32 256, i1 false, null, null, i32 0, metadata !130, i32 1771} ; [ DW_TAG_subprogram ]
!499 = metadata !{i32 786478, i32 0, metadata !298, metadata !"b_not", metadata !"b_not", metadata !"_ZN11ap_int_baseILi12ELb0ELb1EE5b_notEv", metadata !163, i32 1776, metadata !317, i1 false, i1 false, i32 0, i32 0, null, i32 256, i1 false, null, null, i32 0, metadata !130, i32 1776} ; [ DW_TAG_subprogram ]
!500 = metadata !{i32 786478, i32 0, metadata !298, metadata !"countLeadingZeros", metadata !"countLeadingZeros", metadata !"_ZN11ap_int_baseILi12ELb0ELb1EE17countLeadingZerosEv", metadata !163, i32 1783, metadata !501, i1 false, i1 false, i32 0, i32 0, null, i32 256, i1 false, null, null, i32 0, metadata !130, i32 1783} ; [ DW_TAG_subprogram ]
!501 = metadata !{i32 786453, i32 0, metadata !"", i32 0, i32 0, i64 0, i64 0, i64 0, i32 0, null, metadata !502, i32 0, i32 0} ; [ DW_TAG_subroutine_type ]
!502 = metadata !{metadata !139, metadata !319}
!503 = metadata !{i32 786478, i32 0, metadata !298, metadata !"operator++", metadata !"operator++", metadata !"_ZN11ap_int_baseILi12ELb0ELb1EEppEv", metadata !163, i32 1840, metadata !481, i1 false, i1 false, i32 0, i32 0, null, i32 256, i1 false, null, null, i32 0, metadata !130, i32 1840} ; [ DW_TAG_subprogram ]
!504 = metadata !{i32 786478, i32 0, metadata !298, metadata !"operator--", metadata !"operator--", metadata !"_ZN11ap_int_baseILi12ELb0ELb1EEmmEv", metadata !163, i32 1844, metadata !481, i1 false, i1 false, i32 0, i32 0, null, i32 256, i1 false, null, null, i32 0, metadata !130, i32 1844} ; [ DW_TAG_subprogram ]
!505 = metadata !{i32 786478, i32 0, metadata !298, metadata !"operator++", metadata !"operator++", metadata !"_ZN11ap_int_baseILi12ELb0ELb1EEppEi", metadata !163, i32 1852, metadata !506, i1 false, i1 false, i32 0, i32 0, null, i32 256, i1 false, null, null, i32 0, metadata !130, i32 1852} ; [ DW_TAG_subprogram ]
!506 = metadata !{i32 786453, i32 0, metadata !"", i32 0, i32 0, i64 0, i64 0, i64 0, i32 0, null, metadata !507, i32 0, i32 0} ; [ DW_TAG_subroutine_type ]
!507 = metadata !{metadata !324, metadata !319, metadata !139}
!508 = metadata !{i32 786478, i32 0, metadata !298, metadata !"operator--", metadata !"operator--", metadata !"_ZN11ap_int_baseILi12ELb0ELb1EEmmEi", metadata !163, i32 1857, metadata !506, i1 false, i1 false, i32 0, i32 0, null, i32 256, i1 false, null, null, i32 0, metadata !130, i32 1857} ; [ DW_TAG_subprogram ]
!509 = metadata !{i32 786478, i32 0, metadata !298, metadata !"operator+", metadata !"operator+", metadata !"_ZNK11ap_int_baseILi12ELb0ELb1EEpsEv", metadata !163, i32 1866, metadata !510, i1 false, i1 false, i32 0, i32 0, null, i32 256, i1 false, null, null, i32 0, metadata !130, i32 1866} ; [ DW_TAG_subprogram ]
!510 = metadata !{i32 786453, i32 0, metadata !"", i32 0, i32 0, i64 0, i64 0, i64 0, i32 0, null, metadata !511, i32 0, i32 0} ; [ DW_TAG_subroutine_type ]
!511 = metadata !{metadata !298, metadata !438}
!512 = metadata !{i32 786478, i32 0, metadata !298, metadata !"operator!", metadata !"operator!", metadata !"_ZNK11ap_int_baseILi12ELb0ELb1EEntEv", metadata !163, i32 1872, metadata !440, i1 false, i1 false, i32 0, i32 0, null, i32 256, i1 false, null, null, i32 0, metadata !130, i32 1872} ; [ DW_TAG_subprogram ]
!513 = metadata !{i32 786478, i32 0, metadata !298, metadata !"operator-", metadata !"operator-", metadata !"_ZNK11ap_int_baseILi12ELb0ELb1EEngEv", metadata !163, i32 1877, metadata !514, i1 false, i1 false, i32 0, i32 0, null, i32 256, i1 false, null, null, i32 0, metadata !130, i32 1877} ; [ DW_TAG_subprogram ]
!514 = metadata !{i32 786453, i32 0, metadata !"", i32 0, i32 0, i64 0, i64 0, i64 0, i32 0, null, metadata !515, i32 0, i32 0} ; [ DW_TAG_subroutine_type ]
!515 = metadata !{metadata !516, metadata !438}
!516 = metadata !{i32 786434, null, metadata !"ap_int_base<13, true, true>", metadata !163, i32 651, i32 0, i32 0, i32 0, i32 4, null, null, i32 0} ; [ DW_TAG_class_type ]
!517 = metadata !{i32 786478, i32 0, metadata !298, metadata !"range", metadata !"range", metadata !"_ZN11ap_int_baseILi12ELb0ELb1EE5rangeEii", metadata !163, i32 2007, metadata !518, i1 false, i1 false, i32 0, i32 0, null, i32 256, i1 false, null, null, i32 0, metadata !130, i32 2007} ; [ DW_TAG_subprogram ]
!518 = metadata !{i32 786453, i32 0, metadata !"", i32 0, i32 0, i64 0, i64 0, i64 0, i32 0, null, metadata !519, i32 0, i32 0} ; [ DW_TAG_subroutine_type ]
!519 = metadata !{metadata !520, metadata !319, metadata !139, metadata !139}
!520 = metadata !{i32 786434, null, metadata !"ap_range_ref<12, false>", metadata !163, i32 924, i32 0, i32 0, i32 0, i32 4, null, null, i32 0} ; [ DW_TAG_class_type ]
!521 = metadata !{i32 786478, i32 0, metadata !298, metadata !"operator()", metadata !"operator()", metadata !"_ZN11ap_int_baseILi12ELb0ELb1EEclEii", metadata !163, i32 2013, metadata !518, i1 false, i1 false, i32 0, i32 0, null, i32 256, i1 false, null, null, i32 0, metadata !130, i32 2013} ; [ DW_TAG_subprogram ]
!522 = metadata !{i32 786478, i32 0, metadata !298, metadata !"range", metadata !"range", metadata !"_ZNK11ap_int_baseILi12ELb0ELb1EE5rangeEii", metadata !163, i32 2019, metadata !523, i1 false, i1 false, i32 0, i32 0, null, i32 256, i1 false, null, null, i32 0, metadata !130, i32 2019} ; [ DW_TAG_subprogram ]
!523 = metadata !{i32 786453, i32 0, metadata !"", i32 0, i32 0, i64 0, i64 0, i64 0, i32 0, null, metadata !524, i32 0, i32 0} ; [ DW_TAG_subroutine_type ]
!524 = metadata !{metadata !520, metadata !438, metadata !139, metadata !139}
!525 = metadata !{i32 786478, i32 0, metadata !298, metadata !"operator()", metadata !"operator()", metadata !"_ZNK11ap_int_baseILi12ELb0ELb1EEclEii", metadata !163, i32 2025, metadata !523, i1 false, i1 false, i32 0, i32 0, null, i32 256, i1 false, null, null, i32 0, metadata !130, i32 2025} ; [ DW_TAG_subprogram ]
!526 = metadata !{i32 786478, i32 0, metadata !298, metadata !"operator[]", metadata !"operator[]", metadata !"_ZN11ap_int_baseILi12ELb0ELb1EEixEi", metadata !163, i32 2044, metadata !527, i1 false, i1 false, i32 0, i32 0, null, i32 256, i1 false, null, null, i32 0, metadata !130, i32 2044} ; [ DW_TAG_subprogram ]
!527 = metadata !{i32 786453, i32 0, metadata !"", i32 0, i32 0, i64 0, i64 0, i64 0, i32 0, null, metadata !528, i32 0, i32 0} ; [ DW_TAG_subroutine_type ]
!528 = metadata !{metadata !529, metadata !319, metadata !139}
!529 = metadata !{i32 786434, null, metadata !"ap_bit_ref<12, false>", metadata !163, i32 1194, i32 0, i32 0, i32 0, i32 4, null, null, i32 0} ; [ DW_TAG_class_type ]
!530 = metadata !{i32 786478, i32 0, metadata !298, metadata !"operator[]", metadata !"operator[]", metadata !"_ZNK11ap_int_baseILi12ELb0ELb1EEixEi", metadata !163, i32 2058, metadata !489, i1 false, i1 false, i32 0, i32 0, null, i32 256, i1 false, null, null, i32 0, metadata !130, i32 2058} ; [ DW_TAG_subprogram ]
!531 = metadata !{i32 786478, i32 0, metadata !298, metadata !"bit", metadata !"bit", metadata !"_ZN11ap_int_baseILi12ELb0ELb1EE3bitEi", metadata !163, i32 2072, metadata !527, i1 false, i1 false, i32 0, i32 0, null, i32 256, i1 false, null, null, i32 0, metadata !130, i32 2072} ; [ DW_TAG_subprogram ]
!532 = metadata !{i32 786478, i32 0, metadata !298, metadata !"bit", metadata !"bit", metadata !"_ZNK11ap_int_baseILi12ELb0ELb1EE3bitEi", metadata !163, i32 2086, metadata !489, i1 false, i1 false, i32 0, i32 0, null, i32 256, i1 false, null, null, i32 0, metadata !130, i32 2086} ; [ DW_TAG_subprogram ]
!533 = metadata !{i32 786478, i32 0, metadata !298, metadata !"and_reduce", metadata !"and_reduce", metadata !"_ZN11ap_int_baseILi12ELb0ELb1EE10and_reduceEv", metadata !163, i32 2266, metadata !534, i1 false, i1 false, i32 0, i32 0, null, i32 256, i1 false, null, null, i32 0, metadata !130, i32 2266} ; [ DW_TAG_subprogram ]
!534 = metadata !{i32 786453, i32 0, metadata !"", i32 0, i32 0, i64 0, i64 0, i64 0, i32 0, null, metadata !535, i32 0, i32 0} ; [ DW_TAG_subroutine_type ]
!535 = metadata !{metadata !141, metadata !319}
!536 = metadata !{i32 786478, i32 0, metadata !298, metadata !"nand_reduce", metadata !"nand_reduce", metadata !"_ZN11ap_int_baseILi12ELb0ELb1EE11nand_reduceEv", metadata !163, i32 2269, metadata !534, i1 false, i1 false, i32 0, i32 0, null, i32 256, i1 false, null, null, i32 0, metadata !130, i32 2269} ; [ DW_TAG_subprogram ]
!537 = metadata !{i32 786478, i32 0, metadata !298, metadata !"or_reduce", metadata !"or_reduce", metadata !"_ZN11ap_int_baseILi12ELb0ELb1EE9or_reduceEv", metadata !163, i32 2272, metadata !534, i1 false, i1 false, i32 0, i32 0, null, i32 256, i1 false, null, null, i32 0, metadata !130, i32 2272} ; [ DW_TAG_subprogram ]
!538 = metadata !{i32 786478, i32 0, metadata !298, metadata !"nor_reduce", metadata !"nor_reduce", metadata !"_ZN11ap_int_baseILi12ELb0ELb1EE10nor_reduceEv", metadata !163, i32 2275, metadata !534, i1 false, i1 false, i32 0, i32 0, null, i32 256, i1 false, null, null, i32 0, metadata !130, i32 2275} ; [ DW_TAG_subprogram ]
!539 = metadata !{i32 786478, i32 0, metadata !298, metadata !"xor_reduce", metadata !"xor_reduce", metadata !"_ZN11ap_int_baseILi12ELb0ELb1EE10xor_reduceEv", metadata !163, i32 2278, metadata !534, i1 false, i1 false, i32 0, i32 0, null, i32 256, i1 false, null, null, i32 0, metadata !130, i32 2278} ; [ DW_TAG_subprogram ]
!540 = metadata !{i32 786478, i32 0, metadata !298, metadata !"xnor_reduce", metadata !"xnor_reduce", metadata !"_ZN11ap_int_baseILi12ELb0ELb1EE11xnor_reduceEv", metadata !163, i32 2281, metadata !534, i1 false, i1 false, i32 0, i32 0, null, i32 256, i1 false, null, null, i32 0, metadata !130, i32 2281} ; [ DW_TAG_subprogram ]
!541 = metadata !{i32 786478, i32 0, metadata !298, metadata !"and_reduce", metadata !"and_reduce", metadata !"_ZNK11ap_int_baseILi12ELb0ELb1EE10and_reduceEv", metadata !163, i32 2285, metadata !440, i1 false, i1 false, i32 0, i32 0, null, i32 256, i1 false, null, null, i32 0, metadata !130, i32 2285} ; [ DW_TAG_subprogram ]
!542 = metadata !{i32 786478, i32 0, metadata !298, metadata !"nand_reduce", metadata !"nand_reduce", metadata !"_ZNK11ap_int_baseILi12ELb0ELb1EE11nand_reduceEv", metadata !163, i32 2288, metadata !440, i1 false, i1 false, i32 0, i32 0, null, i32 256, i1 false, null, null, i32 0, metadata !130, i32 2288} ; [ DW_TAG_subprogram ]
!543 = metadata !{i32 786478, i32 0, metadata !298, metadata !"or_reduce", metadata !"or_reduce", metadata !"_ZNK11ap_int_baseILi12ELb0ELb1EE9or_reduceEv", metadata !163, i32 2291, metadata !440, i1 false, i1 false, i32 0, i32 0, null, i32 256, i1 false, null, null, i32 0, metadata !130, i32 2291} ; [ DW_TAG_subprogram ]
!544 = metadata !{i32 786478, i32 0, metadata !298, metadata !"nor_reduce", metadata !"nor_reduce", metadata !"_ZNK11ap_int_baseILi12ELb0ELb1EE10nor_reduceEv", metadata !163, i32 2294, metadata !440, i1 false, i1 false, i32 0, i32 0, null, i32 256, i1 false, null, null, i32 0, metadata !130, i32 2294} ; [ DW_TAG_subprogram ]
!545 = metadata !{i32 786478, i32 0, metadata !298, metadata !"xor_reduce", metadata !"xor_reduce", metadata !"_ZNK11ap_int_baseILi12ELb0ELb1EE10xor_reduceEv", metadata !163, i32 2297, metadata !440, i1 false, i1 false, i32 0, i32 0, null, i32 256, i1 false, null, null, i32 0, metadata !130, i32 2297} ; [ DW_TAG_subprogram ]
!546 = metadata !{i32 786478, i32 0, metadata !298, metadata !"xnor_reduce", metadata !"xnor_reduce", metadata !"_ZNK11ap_int_baseILi12ELb0ELb1EE11xnor_reduceEv", metadata !163, i32 2300, metadata !440, i1 false, i1 false, i32 0, i32 0, null, i32 256, i1 false, null, null, i32 0, metadata !130, i32 2300} ; [ DW_TAG_subprogram ]
!547 = metadata !{i32 786478, i32 0, metadata !298, metadata !"to_string", metadata !"to_string", metadata !"_ZNK11ap_int_baseILi12ELb0ELb1EE9to_stringEPci8BaseModeb", metadata !163, i32 2307, metadata !548, i1 false, i1 false, i32 0, i32 0, null, i32 256, i1 false, null, null, i32 0, metadata !130, i32 2307} ; [ DW_TAG_subprogram ]
!548 = metadata !{i32 786453, i32 0, metadata !"", i32 0, i32 0, i64 0, i64 0, i64 0, i32 0, null, metadata !549, i32 0, i32 0} ; [ DW_TAG_subroutine_type ]
!549 = metadata !{null, metadata !438, metadata !550, metadata !139, metadata !551, metadata !141}
!550 = metadata !{i32 786447, null, metadata !"", null, i32 0, i64 32, i64 32, i64 0, i32 0, metadata !193} ; [ DW_TAG_pointer_type ]
!551 = metadata !{i32 786436, null, metadata !"BaseMode", metadata !163, i32 603, i64 5, i64 8, i32 0, i32 0, null, metadata !552, i32 0, i32 0} ; [ DW_TAG_enumeration_type ]
!552 = metadata !{metadata !553, metadata !554, metadata !555, metadata !556}
!553 = metadata !{i32 786472, metadata !"SC_BIN", i64 2} ; [ DW_TAG_enumerator ]
!554 = metadata !{i32 786472, metadata !"SC_OCT", i64 8} ; [ DW_TAG_enumerator ]
!555 = metadata !{i32 786472, metadata !"SC_DEC", i64 10} ; [ DW_TAG_enumerator ]
!556 = metadata !{i32 786472, metadata !"SC_HEX", i64 16} ; [ DW_TAG_enumerator ]
!557 = metadata !{i32 786478, i32 0, metadata !298, metadata !"to_string", metadata !"to_string", metadata !"_ZNK11ap_int_baseILi12ELb0ELb1EE9to_stringE8BaseModeb", metadata !163, i32 2334, metadata !558, i1 false, i1 false, i32 0, i32 0, null, i32 256, i1 false, null, null, i32 0, metadata !130, i32 2334} ; [ DW_TAG_subprogram ]
!558 = metadata !{i32 786453, i32 0, metadata !"", i32 0, i32 0, i64 0, i64 0, i64 0, i32 0, null, metadata !559, i32 0, i32 0} ; [ DW_TAG_subroutine_type ]
!559 = metadata !{metadata !550, metadata !438, metadata !551, metadata !141}
!560 = metadata !{i32 786478, i32 0, metadata !298, metadata !"to_string", metadata !"to_string", metadata !"_ZNK11ap_int_baseILi12ELb0ELb1EE9to_stringEab", metadata !163, i32 2338, metadata !561, i1 false, i1 false, i32 0, i32 0, null, i32 256, i1 false, null, null, i32 0, metadata !130, i32 2338} ; [ DW_TAG_subprogram ]
!561 = metadata !{i32 786453, i32 0, metadata !"", i32 0, i32 0, i64 0, i64 0, i64 0, i32 0, null, metadata !562, i32 0, i32 0} ; [ DW_TAG_subroutine_type ]
!562 = metadata !{metadata !550, metadata !438, metadata !197, metadata !141}
!563 = metadata !{i32 786478, i32 0, metadata !298, metadata !"~ap_int_base", metadata !"~ap_int_base", metadata !"", metadata !163, i32 1398, metadata !317, i1 false, i1 false, i32 0, i32 0, null, i32 320, i1 false, null, null, i32 0, metadata !130, i32 1398} ; [ DW_TAG_subprogram ]
!564 = metadata !{i32 786478, i32 0, metadata !298, metadata !"ap_int_base", metadata !"ap_int_base", metadata !"", metadata !163, i32 1398, metadata !321, i1 false, i1 false, i32 0, i32 0, null, i32 320, i1 false, null, null, i32 0, metadata !130, i32 1398} ; [ DW_TAG_subprogram ]
!565 = metadata !{metadata !566, metadata !140, metadata !567}
!566 = metadata !{i32 786480, null, metadata !"_AP_W", metadata !139, i64 12, null, i32 0, i32 0} ; [ DW_TAG_template_value_parameter ]
!567 = metadata !{i32 786480, null, metadata !"_AP_C", metadata !141, i64 1, null, i32 0, i32 0} ; [ DW_TAG_template_value_parameter ]
!568 = metadata !{i32 786478, i32 0, metadata !117, metadata !"to_int", metadata !"to_int", metadata !"_ZNK13ap_fixed_baseILi24ELi12ELb0EL9ap_q_mode5EL9ap_o_mode3ELi0EE6to_intEv", metadata !118, i32 1101, metadata !569, i1 false, i1 false, i32 0, i32 0, null, i32 256, i1 false, null, null, i32 0, metadata !130, i32 1101} ; [ DW_TAG_subprogram ]
!569 = metadata !{i32 786453, i32 0, metadata !"", i32 0, i32 0, i64 0, i64 0, i64 0, i32 0, null, metadata !570, i32 0, i32 0} ; [ DW_TAG_subroutine_type ]
!570 = metadata !{metadata !139, metadata !246}
!571 = metadata !{i32 786478, i32 0, metadata !117, metadata !"to_uint", metadata !"to_uint", metadata !"_ZNK13ap_fixed_baseILi24ELi12ELb0EL9ap_q_mode5EL9ap_o_mode3ELi0EE7to_uintEv", metadata !118, i32 1104, metadata !572, i1 false, i1 false, i32 0, i32 0, null, i32 256, i1 false, null, null, i32 0, metadata !130, i32 1104} ; [ DW_TAG_subprogram ]
!572 = metadata !{i32 786453, i32 0, metadata !"", i32 0, i32 0, i64 0, i64 0, i64 0, i32 0, null, metadata !573, i32 0, i32 0} ; [ DW_TAG_subroutine_type ]
!573 = metadata !{metadata !216, metadata !246}
!574 = metadata !{i32 786478, i32 0, metadata !117, metadata !"to_int64", metadata !"to_int64", metadata !"_ZNK13ap_fixed_baseILi24ELi12ELb0EL9ap_q_mode5EL9ap_o_mode3ELi0EE8to_int64Ev", metadata !118, i32 1107, metadata !575, i1 false, i1 false, i32 0, i32 0, null, i32 256, i1 false, null, null, i32 0, metadata !130, i32 1107} ; [ DW_TAG_subprogram ]
!575 = metadata !{i32 786453, i32 0, metadata !"", i32 0, i32 0, i64 0, i64 0, i64 0, i32 0, null, metadata !576, i32 0, i32 0} ; [ DW_TAG_subroutine_type ]
!576 = metadata !{metadata !228, metadata !246}
!577 = metadata !{i32 786478, i32 0, metadata !117, metadata !"to_uint64", metadata !"to_uint64", metadata !"_ZNK13ap_fixed_baseILi24ELi12ELb0EL9ap_q_mode5EL9ap_o_mode3ELi0EE9to_uint64Ev", metadata !118, i32 1110, metadata !578, i1 false, i1 false, i32 0, i32 0, null, i32 256, i1 false, null, null, i32 0, metadata !130, i32 1110} ; [ DW_TAG_subprogram ]
!578 = metadata !{i32 786453, i32 0, metadata !"", i32 0, i32 0, i64 0, i64 0, i64 0, i32 0, null, metadata !579, i32 0, i32 0} ; [ DW_TAG_subroutine_type ]
!579 = metadata !{metadata !233, metadata !246}
!580 = metadata !{i32 786478, i32 0, metadata !117, metadata !"to_double", metadata !"to_double", metadata !"_ZNK13ap_fixed_baseILi24ELi12ELb0EL9ap_q_mode5EL9ap_o_mode3ELi0EE9to_doubleEv", metadata !118, i32 1113, metadata !581, i1 false, i1 false, i32 0, i32 0, null, i32 256, i1 false, null, null, i32 0, metadata !130, i32 1113} ; [ DW_TAG_subprogram ]
!581 = metadata !{i32 786453, i32 0, metadata !"", i32 0, i32 0, i64 0, i64 0, i64 0, i32 0, null, metadata !582, i32 0, i32 0} ; [ DW_TAG_subroutine_type ]
!582 = metadata !{metadata !247, metadata !246}
!583 = metadata !{i32 786478, i32 0, metadata !117, metadata !"to_float", metadata !"to_float", metadata !"_ZNK13ap_fixed_baseILi24ELi12ELb0EL9ap_q_mode5EL9ap_o_mode3ELi0EE8to_floatEv", metadata !118, i32 1166, metadata !584, i1 false, i1 false, i32 0, i32 0, null, i32 256, i1 false, null, null, i32 0, metadata !130, i32 1166} ; [ DW_TAG_subprogram ]
!584 = metadata !{i32 786453, i32 0, metadata !"", i32 0, i32 0, i64 0, i64 0, i64 0, i32 0, null, metadata !585, i32 0, i32 0} ; [ DW_TAG_subroutine_type ]
!585 = metadata !{metadata !251, metadata !246}
!586 = metadata !{i32 786478, i32 0, metadata !117, metadata !"to_half", metadata !"to_half", metadata !"_ZNK13ap_fixed_baseILi24ELi12ELb0EL9ap_q_mode5EL9ap_o_mode3ELi0EE7to_halfEv", metadata !118, i32 1215, metadata !587, i1 false, i1 false, i32 0, i32 0, null, i32 256, i1 false, null, null, i32 0, metadata !130, i32 1215} ; [ DW_TAG_subprogram ]
!587 = metadata !{i32 786453, i32 0, metadata !"", i32 0, i32 0, i64 0, i64 0, i64 0, i32 0, null, metadata !588, i32 0, i32 0} ; [ DW_TAG_subroutine_type ]
!588 = metadata !{metadata !255, metadata !246}
!589 = metadata !{i32 786478, i32 0, metadata !117, metadata !"operator double", metadata !"operator double", metadata !"_ZNK13ap_fixed_baseILi24ELi12ELb0EL9ap_q_mode5EL9ap_o_mode3ELi0EEcvdEv", metadata !118, i32 1265, metadata !581, i1 false, i1 false, i32 0, i32 0, null, i32 256, i1 false, null, null, i32 0, metadata !130, i32 1265} ; [ DW_TAG_subprogram ]
!590 = metadata !{i32 786478, i32 0, metadata !117, metadata !"operator float", metadata !"operator float", metadata !"_ZNK13ap_fixed_baseILi24ELi12ELb0EL9ap_q_mode5EL9ap_o_mode3ELi0EEcvfEv", metadata !118, i32 1269, metadata !584, i1 false, i1 false, i32 0, i32 0, null, i32 256, i1 false, null, null, i32 0, metadata !130, i32 1269} ; [ DW_TAG_subprogram ]
!591 = metadata !{i32 786478, i32 0, metadata !117, metadata !"operator half", metadata !"operator half", metadata !"_ZNK13ap_fixed_baseILi24ELi12ELb0EL9ap_q_mode5EL9ap_o_mode3ELi0EEcvDhEv", metadata !118, i32 1272, metadata !587, i1 false, i1 false, i32 0, i32 0, null, i32 256, i1 false, null, null, i32 0, metadata !130, i32 1272} ; [ DW_TAG_subprogram ]
!592 = metadata !{i32 786478, i32 0, metadata !117, metadata !"operator char", metadata !"operator char", metadata !"_ZNK13ap_fixed_baseILi24ELi12ELb0EL9ap_q_mode5EL9ap_o_mode3ELi0EEcvcEv", metadata !118, i32 1275, metadata !593, i1 false, i1 false, i32 0, i32 0, null, i32 256, i1 false, null, null, i32 0, metadata !130, i32 1275} ; [ DW_TAG_subprogram ]
!593 = metadata !{i32 786453, i32 0, metadata !"", i32 0, i32 0, i64 0, i64 0, i64 0, i32 0, null, metadata !594, i32 0, i32 0} ; [ DW_TAG_subroutine_type ]
!594 = metadata !{metadata !193, metadata !246}
!595 = metadata !{i32 786478, i32 0, metadata !117, metadata !"operator signed char", metadata !"operator signed char", metadata !"_ZNK13ap_fixed_baseILi24ELi12ELb0EL9ap_q_mode5EL9ap_o_mode3ELi0EEcvaEv", metadata !118, i32 1279, metadata !596, i1 false, i1 false, i32 0, i32 0, null, i32 256, i1 false, null, null, i32 0, metadata !130, i32 1279} ; [ DW_TAG_subprogram ]
!596 = metadata !{i32 786453, i32 0, metadata !"", i32 0, i32 0, i64 0, i64 0, i64 0, i32 0, null, metadata !597, i32 0, i32 0} ; [ DW_TAG_subroutine_type ]
!597 = metadata !{metadata !197, metadata !246}
!598 = metadata !{i32 786478, i32 0, metadata !117, metadata !"operator unsigned char", metadata !"operator unsigned char", metadata !"_ZNK13ap_fixed_baseILi24ELi12ELb0EL9ap_q_mode5EL9ap_o_mode3ELi0EEcvhEv", metadata !118, i32 1283, metadata !599, i1 false, i1 false, i32 0, i32 0, null, i32 256, i1 false, null, null, i32 0, metadata !130, i32 1283} ; [ DW_TAG_subprogram ]
!599 = metadata !{i32 786453, i32 0, metadata !"", i32 0, i32 0, i64 0, i64 0, i64 0, i32 0, null, metadata !600, i32 0, i32 0} ; [ DW_TAG_subroutine_type ]
!600 = metadata !{metadata !201, metadata !246}
!601 = metadata !{i32 786478, i32 0, metadata !117, metadata !"operator short", metadata !"operator short", metadata !"_ZNK13ap_fixed_baseILi24ELi12ELb0EL9ap_q_mode5EL9ap_o_mode3ELi0EEcvsEv", metadata !118, i32 1287, metadata !602, i1 false, i1 false, i32 0, i32 0, null, i32 256, i1 false, null, null, i32 0, metadata !130, i32 1287} ; [ DW_TAG_subprogram ]
!602 = metadata !{i32 786453, i32 0, metadata !"", i32 0, i32 0, i64 0, i64 0, i64 0, i32 0, null, metadata !603, i32 0, i32 0} ; [ DW_TAG_subroutine_type ]
!603 = metadata !{metadata !205, metadata !246}
!604 = metadata !{i32 786478, i32 0, metadata !117, metadata !"operator unsigned short", metadata !"operator unsigned short", metadata !"_ZNK13ap_fixed_baseILi24ELi12ELb0EL9ap_q_mode5EL9ap_o_mode3ELi0EEcvtEv", metadata !118, i32 1291, metadata !605, i1 false, i1 false, i32 0, i32 0, null, i32 256, i1 false, null, null, i32 0, metadata !130, i32 1291} ; [ DW_TAG_subprogram ]
!605 = metadata !{i32 786453, i32 0, metadata !"", i32 0, i32 0, i64 0, i64 0, i64 0, i32 0, null, metadata !606, i32 0, i32 0} ; [ DW_TAG_subroutine_type ]
!606 = metadata !{metadata !209, metadata !246}
!607 = metadata !{i32 786478, i32 0, metadata !117, metadata !"operator int", metadata !"operator int", metadata !"_ZNK13ap_fixed_baseILi24ELi12ELb0EL9ap_q_mode5EL9ap_o_mode3ELi0EEcviEv", metadata !118, i32 1296, metadata !569, i1 false, i1 false, i32 0, i32 0, null, i32 256, i1 false, null, null, i32 0, metadata !130, i32 1296} ; [ DW_TAG_subprogram ]
!608 = metadata !{i32 786478, i32 0, metadata !117, metadata !"operator unsigned int", metadata !"operator unsigned int", metadata !"_ZNK13ap_fixed_baseILi24ELi12ELb0EL9ap_q_mode5EL9ap_o_mode3ELi0EEcvjEv", metadata !118, i32 1300, metadata !572, i1 false, i1 false, i32 0, i32 0, null, i32 256, i1 false, null, null, i32 0, metadata !130, i32 1300} ; [ DW_TAG_subprogram ]
!609 = metadata !{i32 786478, i32 0, metadata !117, metadata !"operator long", metadata !"operator long", metadata !"_ZNK13ap_fixed_baseILi24ELi12ELb0EL9ap_q_mode5EL9ap_o_mode3ELi0EEcvlEv", metadata !118, i32 1313, metadata !610, i1 false, i1 false, i32 0, i32 0, null, i32 256, i1 false, null, null, i32 0, metadata !130, i32 1313} ; [ DW_TAG_subprogram ]
!610 = metadata !{i32 786453, i32 0, metadata !"", i32 0, i32 0, i64 0, i64 0, i64 0, i32 0, null, metadata !611, i32 0, i32 0} ; [ DW_TAG_subroutine_type ]
!611 = metadata !{metadata !220, metadata !246}
!612 = metadata !{i32 786478, i32 0, metadata !117, metadata !"operator unsigned long", metadata !"operator unsigned long", metadata !"_ZNK13ap_fixed_baseILi24ELi12ELb0EL9ap_q_mode5EL9ap_o_mode3ELi0EEcvmEv", metadata !118, i32 1317, metadata !613, i1 false, i1 false, i32 0, i32 0, null, i32 256, i1 false, null, null, i32 0, metadata !130, i32 1317} ; [ DW_TAG_subprogram ]
!613 = metadata !{i32 786453, i32 0, metadata !"", i32 0, i32 0, i64 0, i64 0, i64 0, i32 0, null, metadata !614, i32 0, i32 0} ; [ DW_TAG_subroutine_type ]
!614 = metadata !{metadata !224, metadata !246}
!615 = metadata !{i32 786478, i32 0, metadata !117, metadata !"operator unsigned long long", metadata !"operator unsigned long long", metadata !"_ZNK13ap_fixed_baseILi24ELi12ELb0EL9ap_q_mode5EL9ap_o_mode3ELi0EEcvyEv", metadata !118, i32 1322, metadata !616, i1 false, i1 false, i32 0, i32 0, null, i32 256, i1 false, null, null, i32 0, metadata !130, i32 1322} ; [ DW_TAG_subprogram ]
!616 = metadata !{i32 786453, i32 0, metadata !"", i32 0, i32 0, i64 0, i64 0, i64 0, i32 0, null, metadata !617, i32 0, i32 0} ; [ DW_TAG_subroutine_type ]
!617 = metadata !{metadata !234, metadata !246}
!618 = metadata !{i32 786478, i32 0, metadata !117, metadata !"operator long long", metadata !"operator long long", metadata !"_ZNK13ap_fixed_baseILi24ELi12ELb0EL9ap_q_mode5EL9ap_o_mode3ELi0EEcvxEv", metadata !118, i32 1326, metadata !619, i1 false, i1 false, i32 0, i32 0, null, i32 256, i1 false, null, null, i32 0, metadata !130, i32 1326} ; [ DW_TAG_subprogram ]
!619 = metadata !{i32 786453, i32 0, metadata !"", i32 0, i32 0, i64 0, i64 0, i64 0, i32 0, null, metadata !620, i32 0, i32 0} ; [ DW_TAG_subroutine_type ]
!620 = metadata !{metadata !229, metadata !246}
!621 = metadata !{i32 786478, i32 0, metadata !117, metadata !"length", metadata !"length", metadata !"_ZNK13ap_fixed_baseILi24ELi12ELb0EL9ap_q_mode5EL9ap_o_mode3ELi0EE6lengthEv", metadata !118, i32 1330, metadata !569, i1 false, i1 false, i32 0, i32 0, null, i32 256, i1 false, null, null, i32 0, metadata !130, i32 1330} ; [ DW_TAG_subprogram ]
!622 = metadata !{i32 786478, i32 0, metadata !117, metadata !"countLeadingZeros", metadata !"countLeadingZeros", metadata !"_ZN13ap_fixed_baseILi24ELi12ELb0EL9ap_q_mode5EL9ap_o_mode3ELi0EE17countLeadingZerosEv", metadata !118, i32 1334, metadata !623, i1 false, i1 false, i32 0, i32 0, null, i32 256, i1 false, null, null, i32 0, metadata !130, i32 1334} ; [ DW_TAG_subprogram ]
!623 = metadata !{i32 786453, i32 0, metadata !"", i32 0, i32 0, i64 0, i64 0, i64 0, i32 0, null, metadata !624, i32 0, i32 0} ; [ DW_TAG_subroutine_type ]
!624 = metadata !{metadata !139, metadata !145}
!625 = metadata !{i32 786478, i32 0, metadata !117, metadata !"operator++", metadata !"operator++", metadata !"_ZN13ap_fixed_baseILi24ELi12ELb0EL9ap_q_mode5EL9ap_o_mode3ELi0EEppEv", metadata !118, i32 1435, metadata !626, i1 false, i1 false, i32 0, i32 0, null, i32 256, i1 false, null, null, i32 0, metadata !130, i32 1435} ; [ DW_TAG_subprogram ]
!626 = metadata !{i32 786453, i32 0, metadata !"", i32 0, i32 0, i64 0, i64 0, i64 0, i32 0, null, metadata !627, i32 0, i32 0} ; [ DW_TAG_subroutine_type ]
!627 = metadata !{metadata !278, metadata !145}
!628 = metadata !{i32 786478, i32 0, metadata !117, metadata !"operator--", metadata !"operator--", metadata !"_ZN13ap_fixed_baseILi24ELi12ELb0EL9ap_q_mode5EL9ap_o_mode3ELi0EEmmEv", metadata !118, i32 1439, metadata !626, i1 false, i1 false, i32 0, i32 0, null, i32 256, i1 false, null, null, i32 0, metadata !130, i32 1439} ; [ DW_TAG_subprogram ]
!629 = metadata !{i32 786478, i32 0, metadata !117, metadata !"operator++", metadata !"operator++", metadata !"_ZN13ap_fixed_baseILi24ELi12ELb0EL9ap_q_mode5EL9ap_o_mode3ELi0EEppEi", metadata !118, i32 1447, metadata !630, i1 false, i1 false, i32 0, i32 0, null, i32 256, i1 false, null, null, i32 0, metadata !130, i32 1447} ; [ DW_TAG_subprogram ]
!630 = metadata !{i32 786453, i32 0, metadata !"", i32 0, i32 0, i64 0, i64 0, i64 0, i32 0, null, metadata !631, i32 0, i32 0} ; [ DW_TAG_subroutine_type ]
!631 = metadata !{metadata !156, metadata !145, metadata !139}
!632 = metadata !{i32 786478, i32 0, metadata !117, metadata !"operator--", metadata !"operator--", metadata !"_ZN13ap_fixed_baseILi24ELi12ELb0EL9ap_q_mode5EL9ap_o_mode3ELi0EEmmEi", metadata !118, i32 1453, metadata !630, i1 false, i1 false, i32 0, i32 0, null, i32 256, i1 false, null, null, i32 0, metadata !130, i32 1453} ; [ DW_TAG_subprogram ]
!633 = metadata !{i32 786478, i32 0, metadata !117, metadata !"operator+", metadata !"operator+", metadata !"_ZN13ap_fixed_baseILi24ELi12ELb0EL9ap_q_mode5EL9ap_o_mode3ELi0EEpsEv", metadata !118, i32 1461, metadata !634, i1 false, i1 false, i32 0, i32 0, null, i32 256, i1 false, null, null, i32 0, metadata !130, i32 1461} ; [ DW_TAG_subprogram ]
!634 = metadata !{i32 786453, i32 0, metadata !"", i32 0, i32 0, i64 0, i64 0, i64 0, i32 0, null, metadata !635, i32 0, i32 0} ; [ DW_TAG_subroutine_type ]
!635 = metadata !{metadata !117, metadata !145}
!636 = metadata !{i32 786478, i32 0, metadata !117, metadata !"operator-", metadata !"operator-", metadata !"_ZNK13ap_fixed_baseILi24ELi12ELb0EL9ap_q_mode5EL9ap_o_mode3ELi0EEngEv", metadata !118, i32 1465, metadata !637, i1 false, i1 false, i32 0, i32 0, null, i32 256, i1 false, null, null, i32 0, metadata !130, i32 1465} ; [ DW_TAG_subprogram ]
!637 = metadata !{i32 786453, i32 0, metadata !"", i32 0, i32 0, i64 0, i64 0, i64 0, i32 0, null, metadata !638, i32 0, i32 0} ; [ DW_TAG_subroutine_type ]
!638 = metadata !{metadata !639, metadata !246}
!639 = metadata !{i32 786434, null, metadata !"ap_fixed_base<25, 13, true, 5, 3, 0>", metadata !118, i32 512, i32 0, i32 0, i32 0, i32 4, null, null, i32 0} ; [ DW_TAG_class_type ]
!640 = metadata !{i32 786478, i32 0, metadata !117, metadata !"getNeg", metadata !"getNeg", metadata !"_ZN13ap_fixed_baseILi24ELi12ELb0EL9ap_q_mode5EL9ap_o_mode3ELi0EE6getNegEv", metadata !118, i32 1471, metadata !641, i1 false, i1 false, i32 0, i32 0, null, i32 256, i1 false, null, null, i32 0, metadata !130, i32 1471} ; [ DW_TAG_subprogram ]
!641 = metadata !{i32 786453, i32 0, metadata !"", i32 0, i32 0, i64 0, i64 0, i64 0, i32 0, null, metadata !642, i32 0, i32 0} ; [ DW_TAG_subroutine_type ]
!642 = metadata !{metadata !643, metadata !145}
!643 = metadata !{i32 786434, null, metadata !"ap_fixed_base<24, 12, true, 5, 3, 0>", metadata !118, i32 512, i32 0, i32 0, i32 0, i32 4, null, null, i32 0} ; [ DW_TAG_class_type ]
!644 = metadata !{i32 786478, i32 0, metadata !117, metadata !"operator!", metadata !"operator!", metadata !"_ZNK13ap_fixed_baseILi24ELi12ELb0EL9ap_q_mode5EL9ap_o_mode3ELi0EEntEv", metadata !118, i32 1479, metadata !645, i1 false, i1 false, i32 0, i32 0, null, i32 256, i1 false, null, null, i32 0, metadata !130, i32 1479} ; [ DW_TAG_subprogram ]
!645 = metadata !{i32 786453, i32 0, metadata !"", i32 0, i32 0, i64 0, i64 0, i64 0, i32 0, null, metadata !646, i32 0, i32 0} ; [ DW_TAG_subroutine_type ]
!646 = metadata !{metadata !141, metadata !246}
!647 = metadata !{i32 786478, i32 0, metadata !117, metadata !"operator~", metadata !"operator~", metadata !"_ZNK13ap_fixed_baseILi24ELi12ELb0EL9ap_q_mode5EL9ap_o_mode3ELi0EEcoEv", metadata !118, i32 1485, metadata !648, i1 false, i1 false, i32 0, i32 0, null, i32 256, i1 false, null, null, i32 0, metadata !130, i32 1485} ; [ DW_TAG_subprogram ]
!648 = metadata !{i32 786453, i32 0, metadata !"", i32 0, i32 0, i64 0, i64 0, i64 0, i32 0, null, metadata !649, i32 0, i32 0} ; [ DW_TAG_subroutine_type ]
!649 = metadata !{metadata !117, metadata !246}
!650 = metadata !{i32 786478, i32 0, metadata !117, metadata !"operator<<", metadata !"operator<<", metadata !"_ZNK13ap_fixed_baseILi24ELi12ELb0EL9ap_q_mode5EL9ap_o_mode3ELi0EElsEi", metadata !118, i32 1508, metadata !651, i1 false, i1 false, i32 0, i32 0, null, i32 256, i1 false, null, null, i32 0, metadata !130, i32 1508} ; [ DW_TAG_subprogram ]
!651 = metadata !{i32 786453, i32 0, metadata !"", i32 0, i32 0, i64 0, i64 0, i64 0, i32 0, null, metadata !652, i32 0, i32 0} ; [ DW_TAG_subroutine_type ]
!652 = metadata !{metadata !117, metadata !246, metadata !139}
!653 = metadata !{i32 786478, i32 0, metadata !117, metadata !"operator<<", metadata !"operator<<", metadata !"_ZNK13ap_fixed_baseILi24ELi12ELb0EL9ap_q_mode5EL9ap_o_mode3ELi0EElsEj", metadata !118, i32 1567, metadata !654, i1 false, i1 false, i32 0, i32 0, null, i32 256, i1 false, null, null, i32 0, metadata !130, i32 1567} ; [ DW_TAG_subprogram ]
!654 = metadata !{i32 786453, i32 0, metadata !"", i32 0, i32 0, i64 0, i64 0, i64 0, i32 0, null, metadata !655, i32 0, i32 0} ; [ DW_TAG_subroutine_type ]
!655 = metadata !{metadata !117, metadata !246, metadata !216}
!656 = metadata !{i32 786478, i32 0, metadata !117, metadata !"operator>>", metadata !"operator>>", metadata !"_ZNK13ap_fixed_baseILi24ELi12ELb0EL9ap_q_mode5EL9ap_o_mode3ELi0EErsEi", metadata !118, i32 1611, metadata !651, i1 false, i1 false, i32 0, i32 0, null, i32 256, i1 false, null, null, i32 0, metadata !130, i32 1611} ; [ DW_TAG_subprogram ]
!657 = metadata !{i32 786478, i32 0, metadata !117, metadata !"operator>>", metadata !"operator>>", metadata !"_ZNK13ap_fixed_baseILi24ELi12ELb0EL9ap_q_mode5EL9ap_o_mode3ELi0EErsEj", metadata !118, i32 1669, metadata !654, i1 false, i1 false, i32 0, i32 0, null, i32 256, i1 false, null, null, i32 0, metadata !130, i32 1669} ; [ DW_TAG_subprogram ]
!658 = metadata !{i32 786478, i32 0, metadata !117, metadata !"operator<<=", metadata !"operator<<=", metadata !"_ZN13ap_fixed_baseILi24ELi12ELb0EL9ap_q_mode5EL9ap_o_mode3ELi0EElSEi", metadata !118, i32 1721, metadata !659, i1 false, i1 false, i32 0, i32 0, null, i32 256, i1 false, null, null, i32 0, metadata !130, i32 1721} ; [ DW_TAG_subprogram ]
!659 = metadata !{i32 786453, i32 0, metadata !"", i32 0, i32 0, i64 0, i64 0, i64 0, i32 0, null, metadata !660, i32 0, i32 0} ; [ DW_TAG_subroutine_type ]
!660 = metadata !{metadata !278, metadata !145, metadata !139}
!661 = metadata !{i32 786478, i32 0, metadata !117, metadata !"operator<<=", metadata !"operator<<=", metadata !"_ZN13ap_fixed_baseILi24ELi12ELb0EL9ap_q_mode5EL9ap_o_mode3ELi0EElSEj", metadata !118, i32 1784, metadata !662, i1 false, i1 false, i32 0, i32 0, null, i32 256, i1 false, null, null, i32 0, metadata !130, i32 1784} ; [ DW_TAG_subprogram ]
!662 = metadata !{i32 786453, i32 0, metadata !"", i32 0, i32 0, i64 0, i64 0, i64 0, i32 0, null, metadata !663, i32 0, i32 0} ; [ DW_TAG_subroutine_type ]
!663 = metadata !{metadata !278, metadata !145, metadata !216}
!664 = metadata !{i32 786478, i32 0, metadata !117, metadata !"operator>>=", metadata !"operator>>=", metadata !"_ZN13ap_fixed_baseILi24ELi12ELb0EL9ap_q_mode5EL9ap_o_mode3ELi0EErSEi", metadata !118, i32 1831, metadata !659, i1 false, i1 false, i32 0, i32 0, null, i32 256, i1 false, null, null, i32 0, metadata !130, i32 1831} ; [ DW_TAG_subprogram ]
!665 = metadata !{i32 786478, i32 0, metadata !117, metadata !"operator>>=", metadata !"operator>>=", metadata !"_ZN13ap_fixed_baseILi24ELi12ELb0EL9ap_q_mode5EL9ap_o_mode3ELi0EErSEj", metadata !118, i32 1893, metadata !662, i1 false, i1 false, i32 0, i32 0, null, i32 256, i1 false, null, null, i32 0, metadata !130, i32 1893} ; [ DW_TAG_subprogram ]
!666 = metadata !{i32 786478, i32 0, metadata !117, metadata !"operator==", metadata !"operator==", metadata !"_ZNK13ap_fixed_baseILi24ELi12ELb0EL9ap_q_mode5EL9ap_o_mode3ELi0EEeqEd", metadata !118, i32 1971, metadata !667, i1 false, i1 false, i32 0, i32 0, null, i32 256, i1 false, null, null, i32 0, metadata !130, i32 1971} ; [ DW_TAG_subprogram ]
!667 = metadata !{i32 786453, i32 0, metadata !"", i32 0, i32 0, i64 0, i64 0, i64 0, i32 0, null, metadata !668, i32 0, i32 0} ; [ DW_TAG_subroutine_type ]
!668 = metadata !{metadata !141, metadata !246, metadata !247}
!669 = metadata !{i32 786478, i32 0, metadata !117, metadata !"operator!=", metadata !"operator!=", metadata !"_ZNK13ap_fixed_baseILi24ELi12ELb0EL9ap_q_mode5EL9ap_o_mode3ELi0EEneEd", metadata !118, i32 1972, metadata !667, i1 false, i1 false, i32 0, i32 0, null, i32 256, i1 false, null, null, i32 0, metadata !130, i32 1972} ; [ DW_TAG_subprogram ]
!670 = metadata !{i32 786478, i32 0, metadata !117, metadata !"operator>", metadata !"operator>", metadata !"_ZNK13ap_fixed_baseILi24ELi12ELb0EL9ap_q_mode5EL9ap_o_mode3ELi0EEgtEd", metadata !118, i32 1973, metadata !667, i1 false, i1 false, i32 0, i32 0, null, i32 256, i1 false, null, null, i32 0, metadata !130, i32 1973} ; [ DW_TAG_subprogram ]
!671 = metadata !{i32 786478, i32 0, metadata !117, metadata !"operator>=", metadata !"operator>=", metadata !"_ZNK13ap_fixed_baseILi24ELi12ELb0EL9ap_q_mode5EL9ap_o_mode3ELi0EEgeEd", metadata !118, i32 1974, metadata !667, i1 false, i1 false, i32 0, i32 0, null, i32 256, i1 false, null, null, i32 0, metadata !130, i32 1974} ; [ DW_TAG_subprogram ]
!672 = metadata !{i32 786478, i32 0, metadata !117, metadata !"operator<", metadata !"operator<", metadata !"_ZNK13ap_fixed_baseILi24ELi12ELb0EL9ap_q_mode5EL9ap_o_mode3ELi0EEltEd", metadata !118, i32 1975, metadata !667, i1 false, i1 false, i32 0, i32 0, null, i32 256, i1 false, null, null, i32 0, metadata !130, i32 1975} ; [ DW_TAG_subprogram ]
!673 = metadata !{i32 786478, i32 0, metadata !117, metadata !"operator<=", metadata !"operator<=", metadata !"_ZNK13ap_fixed_baseILi24ELi12ELb0EL9ap_q_mode5EL9ap_o_mode3ELi0EEleEd", metadata !118, i32 1976, metadata !667, i1 false, i1 false, i32 0, i32 0, null, i32 256, i1 false, null, null, i32 0, metadata !130, i32 1976} ; [ DW_TAG_subprogram ]
!674 = metadata !{i32 786478, i32 0, metadata !117, metadata !"operator[]", metadata !"operator[]", metadata !"_ZN13ap_fixed_baseILi24ELi12ELb0EL9ap_q_mode5EL9ap_o_mode3ELi0EEixEj", metadata !118, i32 1979, metadata !675, i1 false, i1 false, i32 0, i32 0, null, i32 256, i1 false, null, null, i32 0, metadata !130, i32 1979} ; [ DW_TAG_subprogram ]
!675 = metadata !{i32 786453, i32 0, metadata !"", i32 0, i32 0, i64 0, i64 0, i64 0, i32 0, null, metadata !676, i32 0, i32 0} ; [ DW_TAG_subroutine_type ]
!676 = metadata !{metadata !677, metadata !145, metadata !216}
!677 = metadata !{i32 786434, null, metadata !"af_bit_ref<24, 12, false, 5, 3, 0>", metadata !118, i32 93, i32 0, i32 0, i32 0, i32 4, null, null, i32 0} ; [ DW_TAG_class_type ]
!678 = metadata !{i32 786478, i32 0, metadata !117, metadata !"operator[]", metadata !"operator[]", metadata !"_ZNK13ap_fixed_baseILi24ELi12ELb0EL9ap_q_mode5EL9ap_o_mode3ELi0EEixEj", metadata !118, i32 1991, metadata !679, i1 false, i1 false, i32 0, i32 0, null, i32 256, i1 false, null, null, i32 0, metadata !130, i32 1991} ; [ DW_TAG_subprogram ]
!679 = metadata !{i32 786453, i32 0, metadata !"", i32 0, i32 0, i64 0, i64 0, i64 0, i32 0, null, metadata !680, i32 0, i32 0} ; [ DW_TAG_subroutine_type ]
!680 = metadata !{metadata !141, metadata !246, metadata !216}
!681 = metadata !{i32 786478, i32 0, metadata !117, metadata !"bit", metadata !"bit", metadata !"_ZN13ap_fixed_baseILi24ELi12ELb0EL9ap_q_mode5EL9ap_o_mode3ELi0EE3bitEj", metadata !118, i32 1996, metadata !675, i1 false, i1 false, i32 0, i32 0, null, i32 256, i1 false, null, null, i32 0, metadata !130, i32 1996} ; [ DW_TAG_subprogram ]
!682 = metadata !{i32 786478, i32 0, metadata !117, metadata !"bit", metadata !"bit", metadata !"_ZNK13ap_fixed_baseILi24ELi12ELb0EL9ap_q_mode5EL9ap_o_mode3ELi0EE3bitEj", metadata !118, i32 2009, metadata !679, i1 false, i1 false, i32 0, i32 0, null, i32 256, i1 false, null, null, i32 0, metadata !130, i32 2009} ; [ DW_TAG_subprogram ]
!683 = metadata !{i32 786478, i32 0, metadata !117, metadata !"get_bit", metadata !"get_bit", metadata !"_ZNK13ap_fixed_baseILi24ELi12ELb0EL9ap_q_mode5EL9ap_o_mode3ELi0EE7get_bitEi", metadata !118, i32 2021, metadata !684, i1 false, i1 false, i32 0, i32 0, null, i32 256, i1 false, null, null, i32 0, metadata !130, i32 2021} ; [ DW_TAG_subprogram ]
!684 = metadata !{i32 786453, i32 0, metadata !"", i32 0, i32 0, i64 0, i64 0, i64 0, i32 0, null, metadata !685, i32 0, i32 0} ; [ DW_TAG_subroutine_type ]
!685 = metadata !{metadata !141, metadata !246, metadata !139}
!686 = metadata !{i32 786478, i32 0, metadata !117, metadata !"get_bit", metadata !"get_bit", metadata !"_ZN13ap_fixed_baseILi24ELi12ELb0EL9ap_q_mode5EL9ap_o_mode3ELi0EE7get_bitEi", metadata !118, i32 2027, metadata !687, i1 false, i1 false, i32 0, i32 0, null, i32 256, i1 false, null, null, i32 0, metadata !130, i32 2027} ; [ DW_TAG_subprogram ]
!687 = metadata !{i32 786453, i32 0, metadata !"", i32 0, i32 0, i64 0, i64 0, i64 0, i32 0, null, metadata !688, i32 0, i32 0} ; [ DW_TAG_subroutine_type ]
!688 = metadata !{metadata !677, metadata !145, metadata !139}
!689 = metadata !{i32 786478, i32 0, metadata !117, metadata !"range", metadata !"range", metadata !"_ZN13ap_fixed_baseILi24ELi12ELb0EL9ap_q_mode5EL9ap_o_mode3ELi0EE5rangeEii", metadata !118, i32 2042, metadata !690, i1 false, i1 false, i32 0, i32 0, null, i32 256, i1 false, null, null, i32 0, metadata !130, i32 2042} ; [ DW_TAG_subprogram ]
!690 = metadata !{i32 786453, i32 0, metadata !"", i32 0, i32 0, i64 0, i64 0, i64 0, i32 0, null, metadata !691, i32 0, i32 0} ; [ DW_TAG_subroutine_type ]
!691 = metadata !{metadata !692, metadata !145, metadata !139, metadata !139}
!692 = metadata !{i32 786434, null, metadata !"af_range_ref<24, 12, false, 5, 3, 0>", metadata !118, i32 238, i32 0, i32 0, i32 0, i32 4, null, null, i32 0} ; [ DW_TAG_class_type ]
!693 = metadata !{i32 786478, i32 0, metadata !117, metadata !"operator()", metadata !"operator()", metadata !"_ZN13ap_fixed_baseILi24ELi12ELb0EL9ap_q_mode5EL9ap_o_mode3ELi0EEclEii", metadata !118, i32 2048, metadata !690, i1 false, i1 false, i32 0, i32 0, null, i32 256, i1 false, null, null, i32 0, metadata !130, i32 2048} ; [ DW_TAG_subprogram ]
!694 = metadata !{i32 786478, i32 0, metadata !117, metadata !"range", metadata !"range", metadata !"_ZNK13ap_fixed_baseILi24ELi12ELb0EL9ap_q_mode5EL9ap_o_mode3ELi0EE5rangeEii", metadata !118, i32 2054, metadata !695, i1 false, i1 false, i32 0, i32 0, null, i32 256, i1 false, null, null, i32 0, metadata !130, i32 2054} ; [ DW_TAG_subprogram ]
!695 = metadata !{i32 786453, i32 0, metadata !"", i32 0, i32 0, i64 0, i64 0, i64 0, i32 0, null, metadata !696, i32 0, i32 0} ; [ DW_TAG_subroutine_type ]
!696 = metadata !{metadata !692, metadata !246, metadata !139, metadata !139}
!697 = metadata !{i32 786478, i32 0, metadata !117, metadata !"operator()", metadata !"operator()", metadata !"_ZNK13ap_fixed_baseILi24ELi12ELb0EL9ap_q_mode5EL9ap_o_mode3ELi0EEclEii", metadata !118, i32 2103, metadata !695, i1 false, i1 false, i32 0, i32 0, null, i32 256, i1 false, null, null, i32 0, metadata !130, i32 2103} ; [ DW_TAG_subprogram ]
!698 = metadata !{i32 786478, i32 0, metadata !117, metadata !"range", metadata !"range", metadata !"_ZN13ap_fixed_baseILi24ELi12ELb0EL9ap_q_mode5EL9ap_o_mode3ELi0EE5rangeEv", metadata !118, i32 2108, metadata !699, i1 false, i1 false, i32 0, i32 0, null, i32 256, i1 false, null, null, i32 0, metadata !130, i32 2108} ; [ DW_TAG_subprogram ]
!699 = metadata !{i32 786453, i32 0, metadata !"", i32 0, i32 0, i64 0, i64 0, i64 0, i32 0, null, metadata !700, i32 0, i32 0} ; [ DW_TAG_subroutine_type ]
!700 = metadata !{metadata !692, metadata !145}
!701 = metadata !{i32 786478, i32 0, metadata !117, metadata !"range", metadata !"range", metadata !"_ZNK13ap_fixed_baseILi24ELi12ELb0EL9ap_q_mode5EL9ap_o_mode3ELi0EE5rangeEv", metadata !118, i32 2113, metadata !702, i1 false, i1 false, i32 0, i32 0, null, i32 256, i1 false, null, null, i32 0, metadata !130, i32 2113} ; [ DW_TAG_subprogram ]
!702 = metadata !{i32 786453, i32 0, metadata !"", i32 0, i32 0, i64 0, i64 0, i64 0, i32 0, null, metadata !703, i32 0, i32 0} ; [ DW_TAG_subroutine_type ]
!703 = metadata !{metadata !692, metadata !246}
!704 = metadata !{i32 786478, i32 0, metadata !117, metadata !"is_zero", metadata !"is_zero", metadata !"_ZNK13ap_fixed_baseILi24ELi12ELb0EL9ap_q_mode5EL9ap_o_mode3ELi0EE7is_zeroEv", metadata !118, i32 2117, metadata !645, i1 false, i1 false, i32 0, i32 0, null, i32 256, i1 false, null, null, i32 0, metadata !130, i32 2117} ; [ DW_TAG_subprogram ]
!705 = metadata !{i32 786478, i32 0, metadata !117, metadata !"is_neg", metadata !"is_neg", metadata !"_ZNK13ap_fixed_baseILi24ELi12ELb0EL9ap_q_mode5EL9ap_o_mode3ELi0EE6is_negEv", metadata !118, i32 2121, metadata !645, i1 false, i1 false, i32 0, i32 0, null, i32 256, i1 false, null, null, i32 0, metadata !130, i32 2121} ; [ DW_TAG_subprogram ]
!706 = metadata !{i32 786478, i32 0, metadata !117, metadata !"wl", metadata !"wl", metadata !"_ZNK13ap_fixed_baseILi24ELi12ELb0EL9ap_q_mode5EL9ap_o_mode3ELi0EE2wlEv", metadata !118, i32 2127, metadata !569, i1 false, i1 false, i32 0, i32 0, null, i32 256, i1 false, null, null, i32 0, metadata !130, i32 2127} ; [ DW_TAG_subprogram ]
!707 = metadata !{i32 786478, i32 0, metadata !117, metadata !"iwl", metadata !"iwl", metadata !"_ZNK13ap_fixed_baseILi24ELi12ELb0EL9ap_q_mode5EL9ap_o_mode3ELi0EE3iwlEv", metadata !118, i32 2131, metadata !569, i1 false, i1 false, i32 0, i32 0, null, i32 256, i1 false, null, null, i32 0, metadata !130, i32 2131} ; [ DW_TAG_subprogram ]
!708 = metadata !{i32 786478, i32 0, metadata !117, metadata !"q_mode", metadata !"q_mode", metadata !"_ZNK13ap_fixed_baseILi24ELi12ELb0EL9ap_q_mode5EL9ap_o_mode3ELi0EE6q_modeEv", metadata !118, i32 2135, metadata !709, i1 false, i1 false, i32 0, i32 0, null, i32 256, i1 false, null, null, i32 0, metadata !130, i32 2135} ; [ DW_TAG_subprogram ]
!709 = metadata !{i32 786453, i32 0, metadata !"", i32 0, i32 0, i64 0, i64 0, i64 0, i32 0, null, metadata !710, i32 0, i32 0} ; [ DW_TAG_subroutine_type ]
!710 = metadata !{metadata !162, metadata !246}
!711 = metadata !{i32 786478, i32 0, metadata !117, metadata !"o_mode", metadata !"o_mode", metadata !"_ZNK13ap_fixed_baseILi24ELi12ELb0EL9ap_q_mode5EL9ap_o_mode3ELi0EE6o_modeEv", metadata !118, i32 2139, metadata !712, i1 false, i1 false, i32 0, i32 0, null, i32 256, i1 false, null, null, i32 0, metadata !130, i32 2139} ; [ DW_TAG_subprogram ]
!712 = metadata !{i32 786453, i32 0, metadata !"", i32 0, i32 0, i64 0, i64 0, i64 0, i32 0, null, metadata !713, i32 0, i32 0} ; [ DW_TAG_subroutine_type ]
!713 = metadata !{metadata !173, metadata !246}
!714 = metadata !{i32 786478, i32 0, metadata !117, metadata !"n_bits", metadata !"n_bits", metadata !"_ZNK13ap_fixed_baseILi24ELi12ELb0EL9ap_q_mode5EL9ap_o_mode3ELi0EE6n_bitsEv", metadata !118, i32 2143, metadata !569, i1 false, i1 false, i32 0, i32 0, null, i32 256, i1 false, null, null, i32 0, metadata !130, i32 2143} ; [ DW_TAG_subprogram ]
!715 = metadata !{i32 786478, i32 0, metadata !117, metadata !"to_string", metadata !"to_string", metadata !"_ZN13ap_fixed_baseILi24ELi12ELb0EL9ap_q_mode5EL9ap_o_mode3ELi0EE9to_stringE8BaseMode", metadata !118, i32 2147, metadata !716, i1 false, i1 false, i32 0, i32 0, null, i32 256, i1 false, null, null, i32 0, metadata !130, i32 2147} ; [ DW_TAG_subprogram ]
!716 = metadata !{i32 786453, i32 0, metadata !"", i32 0, i32 0, i64 0, i64 0, i64 0, i32 0, null, metadata !717, i32 0, i32 0} ; [ DW_TAG_subroutine_type ]
!717 = metadata !{metadata !550, metadata !145, metadata !551}
!718 = metadata !{i32 786478, i32 0, metadata !117, metadata !"to_string", metadata !"to_string", metadata !"_ZN13ap_fixed_baseILi24ELi12ELb0EL9ap_q_mode5EL9ap_o_mode3ELi0EE9to_stringEa", metadata !118, i32 2151, metadata !719, i1 false, i1 false, i32 0, i32 0, null, i32 256, i1 false, null, null, i32 0, metadata !130, i32 2151} ; [ DW_TAG_subprogram ]
!719 = metadata !{i32 786453, i32 0, metadata !"", i32 0, i32 0, i64 0, i64 0, i64 0, i32 0, null, metadata !720, i32 0, i32 0} ; [ DW_TAG_subroutine_type ]
!720 = metadata !{metadata !550, metadata !145, metadata !197}
!721 = metadata !{i32 786478, i32 0, metadata !117, metadata !"ap_fixed_base", metadata !"ap_fixed_base", metadata !"", metadata !118, i32 512, metadata !153, i1 false, i1 false, i32 0, i32 0, null, i32 320, i1 false, null, null, i32 0, metadata !130, i32 512} ; [ DW_TAG_subprogram ]
!722 = metadata !{metadata !723, metadata !724, metadata !140, metadata !725, metadata !726, metadata !727}
!723 = metadata !{i32 786480, null, metadata !"_AP_W", metadata !139, i64 24, null, i32 0, i32 0} ; [ DW_TAG_template_value_parameter ]
!724 = metadata !{i32 786480, null, metadata !"_AP_I", metadata !139, i64 12, null, i32 0, i32 0} ; [ DW_TAG_template_value_parameter ]
!725 = metadata !{i32 786480, null, metadata !"_AP_Q", metadata !162, i64 5, null, i32 0, i32 0} ; [ DW_TAG_template_value_parameter ]
!726 = metadata !{i32 786480, null, metadata !"_AP_O", metadata !173, i64 3, null, i32 0, i32 0} ; [ DW_TAG_template_value_parameter ]
!727 = metadata !{i32 786480, null, metadata !"_AP_N", metadata !139, i64 0, null, i32 0, i32 0} ; [ DW_TAG_template_value_parameter ]
!728 = metadata !{i32 786478, i32 0, metadata !113, metadata !"ap_ufixed", metadata !"ap_ufixed", metadata !"", metadata !114, i32 414, metadata !729, i1 false, i1 false, i32 0, i32 0, null, i32 256, i1 false, null, null, i32 0, metadata !130, i32 414} ; [ DW_TAG_subprogram ]
!729 = metadata !{i32 786453, i32 0, metadata !"", i32 0, i32 0, i64 0, i64 0, i64 0, i32 0, null, metadata !730, i32 0, i32 0} ; [ DW_TAG_subroutine_type ]
!730 = metadata !{null, metadata !731}
!731 = metadata !{i32 786447, i32 0, metadata !"", i32 0, i32 0, i64 32, i64 32, i64 0, i32 64, metadata !113} ; [ DW_TAG_pointer_type ]
!732 = metadata !{i32 786478, i32 0, metadata !113, metadata !"ap_ufixed<24, 12, 5, 3, 0>", metadata !"ap_ufixed<24, 12, 5, 3, 0>", metadata !"", metadata !114, i32 425, metadata !733, i1 false, i1 false, i32 0, i32 0, null, i32 256, i1 false, null, metadata !737, i32 0, metadata !130, i32 425} ; [ DW_TAG_subprogram ]
!733 = metadata !{i32 786453, i32 0, metadata !"", i32 0, i32 0, i64 0, i64 0, i64 0, i32 0, null, metadata !734, i32 0, i32 0} ; [ DW_TAG_subroutine_type ]
!734 = metadata !{null, metadata !731, metadata !735}
!735 = metadata !{i32 786448, null, null, null, i32 0, i64 0, i64 0, i64 0, i32 0, metadata !736} ; [ DW_TAG_reference_type ]
!736 = metadata !{i32 786470, null, metadata !"", null, i32 0, i64 0, i64 0, i64 0, i32 0, metadata !113} ; [ DW_TAG_const_type ]
!737 = metadata !{metadata !158, metadata !159, metadata !161, metadata !172, metadata !180}
!738 = metadata !{i32 786478, i32 0, metadata !113, metadata !"ap_ufixed<24, 12, 5, 3, 0>", metadata !"ap_ufixed<24, 12, 5, 3, 0>", metadata !"", metadata !114, i32 445, metadata !739, i1 false, i1 false, i32 0, i32 0, null, i32 256, i1 false, null, metadata !737, i32 0, metadata !130, i32 445} ; [ DW_TAG_subprogram ]
!739 = metadata !{i32 786453, i32 0, metadata !"", i32 0, i32 0, i64 0, i64 0, i64 0, i32 0, null, metadata !740, i32 0, i32 0} ; [ DW_TAG_subroutine_type ]
!740 = metadata !{null, metadata !731, metadata !741}
!741 = metadata !{i32 786448, null, null, null, i32 0, i64 0, i64 0, i64 0, i32 0, metadata !742} ; [ DW_TAG_reference_type ]
!742 = metadata !{i32 786470, null, metadata !"", null, i32 0, i64 0, i64 0, i64 0, i32 0, metadata !743} ; [ DW_TAG_const_type ]
!743 = metadata !{i32 786485, null, metadata !"", null, i32 0, i64 0, i64 0, i64 0, i32 0, metadata !113} ; [ DW_TAG_volatile_type ]
!744 = metadata !{i32 786478, i32 0, metadata !113, metadata !"ap_ufixed<24, 12, false, 5, 3, 0>", metadata !"ap_ufixed<24, 12, false, 5, 3, 0>", metadata !"", metadata !114, i32 458, metadata !745, i1 false, i1 false, i32 0, i32 0, null, i32 256, i1 false, null, metadata !157, i32 0, metadata !130, i32 458} ; [ DW_TAG_subprogram ]
!745 = metadata !{i32 786453, i32 0, metadata !"", i32 0, i32 0, i64 0, i64 0, i64 0, i32 0, null, metadata !746, i32 0, i32 0} ; [ DW_TAG_subroutine_type ]
!746 = metadata !{null, metadata !731, metadata !155}
!747 = metadata !{i32 786478, i32 0, metadata !113, metadata !"ap_ufixed", metadata !"ap_ufixed", metadata !"", metadata !114, i32 488, metadata !748, i1 false, i1 false, i32 0, i32 0, null, i32 256, i1 false, null, null, i32 0, metadata !130, i32 488} ; [ DW_TAG_subprogram ]
!748 = metadata !{i32 786453, i32 0, metadata !"", i32 0, i32 0, i64 0, i64 0, i64 0, i32 0, null, metadata !749, i32 0, i32 0} ; [ DW_TAG_subroutine_type ]
!749 = metadata !{null, metadata !731, metadata !141}
!750 = metadata !{i32 786478, i32 0, metadata !113, metadata !"ap_ufixed", metadata !"ap_ufixed", metadata !"", metadata !114, i32 489, metadata !751, i1 false, i1 false, i32 0, i32 0, null, i32 256, i1 false, null, null, i32 0, metadata !130, i32 489} ; [ DW_TAG_subprogram ]
!751 = metadata !{i32 786453, i32 0, metadata !"", i32 0, i32 0, i64 0, i64 0, i64 0, i32 0, null, metadata !752, i32 0, i32 0} ; [ DW_TAG_subroutine_type ]
!752 = metadata !{null, metadata !731, metadata !197}
!753 = metadata !{i32 786478, i32 0, metadata !113, metadata !"ap_ufixed", metadata !"ap_ufixed", metadata !"", metadata !114, i32 490, metadata !754, i1 false, i1 false, i32 0, i32 0, null, i32 256, i1 false, null, null, i32 0, metadata !130, i32 490} ; [ DW_TAG_subprogram ]
!754 = metadata !{i32 786453, i32 0, metadata !"", i32 0, i32 0, i64 0, i64 0, i64 0, i32 0, null, metadata !755, i32 0, i32 0} ; [ DW_TAG_subroutine_type ]
!755 = metadata !{null, metadata !731, metadata !201}
!756 = metadata !{i32 786478, i32 0, metadata !113, metadata !"ap_ufixed", metadata !"ap_ufixed", metadata !"", metadata !114, i32 491, metadata !757, i1 false, i1 false, i32 0, i32 0, null, i32 256, i1 false, null, null, i32 0, metadata !130, i32 491} ; [ DW_TAG_subprogram ]
!757 = metadata !{i32 786453, i32 0, metadata !"", i32 0, i32 0, i64 0, i64 0, i64 0, i32 0, null, metadata !758, i32 0, i32 0} ; [ DW_TAG_subroutine_type ]
!758 = metadata !{null, metadata !731, metadata !205}
!759 = metadata !{i32 786478, i32 0, metadata !113, metadata !"ap_ufixed", metadata !"ap_ufixed", metadata !"", metadata !114, i32 492, metadata !760, i1 false, i1 false, i32 0, i32 0, null, i32 256, i1 false, null, null, i32 0, metadata !130, i32 492} ; [ DW_TAG_subprogram ]
!760 = metadata !{i32 786453, i32 0, metadata !"", i32 0, i32 0, i64 0, i64 0, i64 0, i32 0, null, metadata !761, i32 0, i32 0} ; [ DW_TAG_subroutine_type ]
!761 = metadata !{null, metadata !731, metadata !209}
!762 = metadata !{i32 786478, i32 0, metadata !113, metadata !"ap_ufixed", metadata !"ap_ufixed", metadata !"", metadata !114, i32 493, metadata !763, i1 false, i1 false, i32 0, i32 0, null, i32 256, i1 false, null, null, i32 0, metadata !130, i32 493} ; [ DW_TAG_subprogram ]
!763 = metadata !{i32 786453, i32 0, metadata !"", i32 0, i32 0, i64 0, i64 0, i64 0, i32 0, null, metadata !764, i32 0, i32 0} ; [ DW_TAG_subroutine_type ]
!764 = metadata !{null, metadata !731, metadata !139}
!765 = metadata !{i32 786478, i32 0, metadata !113, metadata !"ap_ufixed", metadata !"ap_ufixed", metadata !"", metadata !114, i32 494, metadata !766, i1 false, i1 false, i32 0, i32 0, null, i32 256, i1 false, null, null, i32 0, metadata !130, i32 494} ; [ DW_TAG_subprogram ]
!766 = metadata !{i32 786453, i32 0, metadata !"", i32 0, i32 0, i64 0, i64 0, i64 0, i32 0, null, metadata !767, i32 0, i32 0} ; [ DW_TAG_subroutine_type ]
!767 = metadata !{null, metadata !731, metadata !216}
!768 = metadata !{i32 786478, i32 0, metadata !113, metadata !"ap_ufixed", metadata !"ap_ufixed", metadata !"", metadata !114, i32 495, metadata !769, i1 false, i1 false, i32 0, i32 0, null, i32 256, i1 false, null, null, i32 0, metadata !130, i32 495} ; [ DW_TAG_subprogram ]
!769 = metadata !{i32 786453, i32 0, metadata !"", i32 0, i32 0, i64 0, i64 0, i64 0, i32 0, null, metadata !770, i32 0, i32 0} ; [ DW_TAG_subroutine_type ]
!770 = metadata !{null, metadata !731, metadata !220}
!771 = metadata !{i32 786478, i32 0, metadata !113, metadata !"ap_ufixed", metadata !"ap_ufixed", metadata !"", metadata !114, i32 496, metadata !772, i1 false, i1 false, i32 0, i32 0, null, i32 256, i1 false, null, null, i32 0, metadata !130, i32 496} ; [ DW_TAG_subprogram ]
!772 = metadata !{i32 786453, i32 0, metadata !"", i32 0, i32 0, i64 0, i64 0, i64 0, i32 0, null, metadata !773, i32 0, i32 0} ; [ DW_TAG_subroutine_type ]
!773 = metadata !{null, metadata !731, metadata !224}
!774 = metadata !{i32 786478, i32 0, metadata !113, metadata !"ap_ufixed", metadata !"ap_ufixed", metadata !"", metadata !114, i32 497, metadata !775, i1 false, i1 false, i32 0, i32 0, null, i32 256, i1 false, null, null, i32 0, metadata !130, i32 497} ; [ DW_TAG_subprogram ]
!775 = metadata !{i32 786453, i32 0, metadata !"", i32 0, i32 0, i64 0, i64 0, i64 0, i32 0, null, metadata !776, i32 0, i32 0} ; [ DW_TAG_subroutine_type ]
!776 = metadata !{null, metadata !731, metadata !234}
!777 = metadata !{i32 786478, i32 0, metadata !113, metadata !"ap_ufixed", metadata !"ap_ufixed", metadata !"", metadata !114, i32 498, metadata !778, i1 false, i1 false, i32 0, i32 0, null, i32 256, i1 false, null, null, i32 0, metadata !130, i32 498} ; [ DW_TAG_subprogram ]
!778 = metadata !{i32 786453, i32 0, metadata !"", i32 0, i32 0, i64 0, i64 0, i64 0, i32 0, null, metadata !779, i32 0, i32 0} ; [ DW_TAG_subroutine_type ]
!779 = metadata !{null, metadata !731, metadata !229}
!780 = metadata !{i32 786478, i32 0, metadata !113, metadata !"ap_ufixed", metadata !"ap_ufixed", metadata !"", metadata !114, i32 499, metadata !781, i1 false, i1 false, i32 0, i32 0, null, i32 256, i1 false, null, null, i32 0, metadata !130, i32 499} ; [ DW_TAG_subprogram ]
!781 = metadata !{i32 786453, i32 0, metadata !"", i32 0, i32 0, i64 0, i64 0, i64 0, i32 0, null, metadata !782, i32 0, i32 0} ; [ DW_TAG_subroutine_type ]
!782 = metadata !{null, metadata !731, metadata !255}
!783 = metadata !{i32 786478, i32 0, metadata !113, metadata !"ap_ufixed", metadata !"ap_ufixed", metadata !"", metadata !114, i32 500, metadata !784, i1 false, i1 false, i32 0, i32 0, null, i32 256, i1 false, null, null, i32 0, metadata !130, i32 500} ; [ DW_TAG_subprogram ]
!784 = metadata !{i32 786453, i32 0, metadata !"", i32 0, i32 0, i64 0, i64 0, i64 0, i32 0, null, metadata !785, i32 0, i32 0} ; [ DW_TAG_subroutine_type ]
!785 = metadata !{null, metadata !731, metadata !251}
!786 = metadata !{i32 786478, i32 0, metadata !113, metadata !"ap_ufixed", metadata !"ap_ufixed", metadata !"", metadata !114, i32 501, metadata !787, i1 false, i1 false, i32 0, i32 0, null, i32 256, i1 false, null, null, i32 0, metadata !130, i32 501} ; [ DW_TAG_subprogram ]
!787 = metadata !{i32 786453, i32 0, metadata !"", i32 0, i32 0, i64 0, i64 0, i64 0, i32 0, null, metadata !788, i32 0, i32 0} ; [ DW_TAG_subroutine_type ]
!788 = metadata !{null, metadata !731, metadata !247}
!789 = metadata !{i32 786478, i32 0, metadata !113, metadata !"ap_ufixed", metadata !"ap_ufixed", metadata !"", metadata !114, i32 503, metadata !790, i1 false, i1 false, i32 0, i32 0, null, i32 256, i1 false, null, null, i32 0, metadata !130, i32 503} ; [ DW_TAG_subprogram ]
!790 = metadata !{i32 786453, i32 0, metadata !"", i32 0, i32 0, i64 0, i64 0, i64 0, i32 0, null, metadata !791, i32 0, i32 0} ; [ DW_TAG_subroutine_type ]
!791 = metadata !{null, metadata !731, metadata !238}
!792 = metadata !{i32 786478, i32 0, metadata !113, metadata !"ap_ufixed", metadata !"ap_ufixed", metadata !"", metadata !114, i32 504, metadata !793, i1 false, i1 false, i32 0, i32 0, null, i32 256, i1 false, null, null, i32 0, metadata !130, i32 504} ; [ DW_TAG_subprogram ]
!793 = metadata !{i32 786453, i32 0, metadata !"", i32 0, i32 0, i64 0, i64 0, i64 0, i32 0, null, metadata !794, i32 0, i32 0} ; [ DW_TAG_subroutine_type ]
!794 = metadata !{null, metadata !731, metadata !238, metadata !197}
!795 = metadata !{i32 786478, i32 0, metadata !113, metadata !"operator=", metadata !"operator=", metadata !"_ZN9ap_ufixedILi24ELi12EL9ap_q_mode5EL9ap_o_mode3ELi0EEaSERKS2_", metadata !114, i32 507, metadata !796, i1 false, i1 false, i32 0, i32 0, null, i32 256, i1 false, null, null, i32 0, metadata !130, i32 507} ; [ DW_TAG_subprogram ]
!796 = metadata !{i32 786453, i32 0, metadata !"", i32 0, i32 0, i64 0, i64 0, i64 0, i32 0, null, metadata !797, i32 0, i32 0} ; [ DW_TAG_subroutine_type ]
!797 = metadata !{metadata !798, metadata !731, metadata !735}
!798 = metadata !{i32 786448, null, null, null, i32 0, i64 0, i64 0, i64 0, i32 0, metadata !113} ; [ DW_TAG_reference_type ]
!799 = metadata !{i32 786478, i32 0, metadata !113, metadata !"operator=", metadata !"operator=", metadata !"_ZN9ap_ufixedILi24ELi12EL9ap_q_mode5EL9ap_o_mode3ELi0EEaSERVKS2_", metadata !114, i32 513, metadata !800, i1 false, i1 false, i32 0, i32 0, null, i32 256, i1 false, null, null, i32 0, metadata !130, i32 513} ; [ DW_TAG_subprogram ]
!800 = metadata !{i32 786453, i32 0, metadata !"", i32 0, i32 0, i64 0, i64 0, i64 0, i32 0, null, metadata !801, i32 0, i32 0} ; [ DW_TAG_subroutine_type ]
!801 = metadata !{metadata !798, metadata !731, metadata !741}
!802 = metadata !{i32 786478, i32 0, metadata !113, metadata !"operator=", metadata !"operator=", metadata !"_ZNV9ap_ufixedILi24ELi12EL9ap_q_mode5EL9ap_o_mode3ELi0EEaSERKS2_", metadata !114, i32 519, metadata !803, i1 false, i1 false, i32 0, i32 0, null, i32 256, i1 false, null, null, i32 0, metadata !130, i32 519} ; [ DW_TAG_subprogram ]
!803 = metadata !{i32 786453, i32 0, metadata !"", i32 0, i32 0, i64 0, i64 0, i64 0, i32 0, null, metadata !804, i32 0, i32 0} ; [ DW_TAG_subroutine_type ]
!804 = metadata !{null, metadata !805, metadata !735}
!805 = metadata !{i32 786447, i32 0, metadata !"", i32 0, i32 0, i64 32, i64 32, i64 0, i32 64, metadata !743} ; [ DW_TAG_pointer_type ]
!806 = metadata !{i32 786478, i32 0, metadata !113, metadata !"operator=", metadata !"operator=", metadata !"_ZNV9ap_ufixedILi24ELi12EL9ap_q_mode5EL9ap_o_mode3ELi0EEaSERVKS2_", metadata !114, i32 524, metadata !807, i1 false, i1 false, i32 0, i32 0, null, i32 256, i1 false, null, null, i32 0, metadata !130, i32 524} ; [ DW_TAG_subprogram ]
!807 = metadata !{i32 786453, i32 0, metadata !"", i32 0, i32 0, i64 0, i64 0, i64 0, i32 0, null, metadata !808, i32 0, i32 0} ; [ DW_TAG_subroutine_type ]
!808 = metadata !{null, metadata !805, metadata !741}
!809 = metadata !{i32 786478, i32 0, metadata !113, metadata !"ap_ufixed", metadata !"ap_ufixed", metadata !"", metadata !114, i32 411, metadata !733, i1 false, i1 false, i32 0, i32 0, null, i32 320, i1 false, null, null, i32 0, metadata !130, i32 411} ; [ DW_TAG_subprogram ]
!810 = metadata !{metadata !723, metadata !724, metadata !725, metadata !726, metadata !727}
!811 = metadata !{i32 786445, metadata !108, metadata !"voice", metadata !109, i32 57, i64 8, i64 8, i64 32, i32 0, metadata !812} ; [ DW_TAG_member ]
!812 = metadata !{i32 786454, null, metadata !"uint4", metadata !109, i32 24, i64 0, i64 0, i64 0, i32 0, metadata !813} ; [ DW_TAG_typedef ]
!813 = metadata !{i32 786434, null, metadata !"ap_uint<4>", metadata !114, i32 182, i64 8, i64 8, i32 0, i32 0, null, metadata !814, i32 0, null, metadata !1403} ; [ DW_TAG_class_type ]
!814 = metadata !{metadata !815, metadata !1321, metadata !1325, metadata !1331, metadata !1337, metadata !1340, metadata !1343, metadata !1346, metadata !1349, metadata !1352, metadata !1355, metadata !1358, metadata !1361, metadata !1364, metadata !1367, metadata !1370, metadata !1373, metadata !1376, metadata !1379, metadata !1382, metadata !1385, metadata !1388, metadata !1392, metadata !1395, metadata !1399, metadata !1402}
!815 = metadata !{i32 786460, metadata !813, null, metadata !114, i32 0, i64 0, i64 0, i64 0, i32 0, metadata !816} ; [ DW_TAG_inheritance ]
!816 = metadata !{i32 786434, null, metadata !"ap_int_base<4, false, true>", metadata !163, i32 1398, i64 8, i64 8, i32 0, i32 0, null, metadata !817, i32 0, null, metadata !1319} ; [ DW_TAG_class_type ]
!817 = metadata !{metadata !818, metadata !834, metadata !838, metadata !845, metadata !851, metadata !854, metadata !857, metadata !860, metadata !863, metadata !866, metadata !869, metadata !872, metadata !875, metadata !878, metadata !881, metadata !884, metadata !887, metadata !890, metadata !893, metadata !896, metadata !899, metadata !903, metadata !906, metadata !909, metadata !910, metadata !914, metadata !917, metadata !920, metadata !923, metadata !926, metadata !929, metadata !932, metadata !935, metadata !938, metadata !941, metadata !944, metadata !947, metadata !956, metadata !959, metadata !962, metadata !965, metadata !968, metadata !971, metadata !974, metadata !977, metadata !980, metadata !983, metadata !986, metadata !989, metadata !992, metadata !993, metadata !997, metadata !1000, metadata !1001, metadata !1002, metadata !1003, metadata !1004, metadata !1005, metadata !1008, metadata !1009, metadata !1012, metadata !1013, metadata !1014, metadata !1015, metadata !1016, metadata !1017, metadata !1020, metadata !1021, metadata !1022, metadata !1025, metadata !1026, metadata !1029, metadata !1030, metadata !1279, metadata !1283, metadata !1284, metadata !1287, metadata !1288, metadata !1292, metadata !1293, metadata !1294, metadata !1295, metadata !1298, metadata !1299, metadata !1300, metadata !1301, metadata !1302, metadata !1303, metadata !1304, metadata !1305, metadata !1306, metadata !1307, metadata !1308, metadata !1309, metadata !1312, metadata !1315, metadata !1318}
!818 = metadata !{i32 786460, metadata !816, null, metadata !163, i32 0, i64 0, i64 0, i64 0, i32 0, metadata !819} ; [ DW_TAG_inheritance ]
!819 = metadata !{i32 786434, null, metadata !"ssdm_int<4 + 1024 * 0, false>", metadata !122, i32 6, i64 8, i64 8, i32 0, i32 0, null, metadata !820, i32 0, null, metadata !832} ; [ DW_TAG_class_type ]
!820 = metadata !{metadata !821, metadata !823, metadata !827}
!821 = metadata !{i32 786445, metadata !819, metadata !"V", metadata !122, i32 6, i64 4, i64 4, i64 0, i32 0, metadata !822} ; [ DW_TAG_member ]
!822 = metadata !{i32 786468, null, metadata !"uint4", null, i32 0, i64 4, i64 4, i64 0, i32 0, i32 7} ; [ DW_TAG_base_type ]
!823 = metadata !{i32 786478, i32 0, metadata !819, metadata !"ssdm_int", metadata !"ssdm_int", metadata !"", metadata !122, i32 6, metadata !824, i1 false, i1 false, i32 0, i32 0, null, i32 256, i1 false, null, null, i32 0, metadata !130, i32 6} ; [ DW_TAG_subprogram ]
!824 = metadata !{i32 786453, i32 0, metadata !"", i32 0, i32 0, i64 0, i64 0, i64 0, i32 0, null, metadata !825, i32 0, i32 0} ; [ DW_TAG_subroutine_type ]
!825 = metadata !{null, metadata !826}
!826 = metadata !{i32 786447, i32 0, metadata !"", i32 0, i32 0, i64 32, i64 32, i64 0, i32 64, metadata !819} ; [ DW_TAG_pointer_type ]
!827 = metadata !{i32 786478, i32 0, metadata !819, metadata !"ssdm_int", metadata !"ssdm_int", metadata !"", metadata !122, i32 6, metadata !828, i1 false, i1 false, i32 0, i32 0, null, i32 320, i1 false, null, null, i32 0, metadata !130, i32 6} ; [ DW_TAG_subprogram ]
!828 = metadata !{i32 786453, i32 0, metadata !"", i32 0, i32 0, i64 0, i64 0, i64 0, i32 0, null, metadata !829, i32 0, i32 0} ; [ DW_TAG_subroutine_type ]
!829 = metadata !{null, metadata !826, metadata !830}
!830 = metadata !{i32 786448, null, null, null, i32 0, i64 0, i64 0, i64 0, i32 0, metadata !831} ; [ DW_TAG_reference_type ]
!831 = metadata !{i32 786470, null, metadata !"", null, i32 0, i64 0, i64 0, i64 0, i32 0, metadata !819} ; [ DW_TAG_const_type ]
!832 = metadata !{metadata !833, metadata !140}
!833 = metadata !{i32 786480, null, metadata !"_AP_N", metadata !139, i64 4, null, i32 0, i32 0} ; [ DW_TAG_template_value_parameter ]
!834 = metadata !{i32 786478, i32 0, metadata !816, metadata !"ap_int_base", metadata !"ap_int_base", metadata !"", metadata !163, i32 1439, metadata !835, i1 false, i1 false, i32 0, i32 0, null, i32 256, i1 false, null, null, i32 0, metadata !130, i32 1439} ; [ DW_TAG_subprogram ]
!835 = metadata !{i32 786453, i32 0, metadata !"", i32 0, i32 0, i64 0, i64 0, i64 0, i32 0, null, metadata !836, i32 0, i32 0} ; [ DW_TAG_subroutine_type ]
!836 = metadata !{null, metadata !837}
!837 = metadata !{i32 786447, i32 0, metadata !"", i32 0, i32 0, i64 32, i64 32, i64 0, i32 64, metadata !816} ; [ DW_TAG_pointer_type ]
!838 = metadata !{i32 786478, i32 0, metadata !816, metadata !"ap_int_base<4, false>", metadata !"ap_int_base<4, false>", metadata !"", metadata !163, i32 1451, metadata !839, i1 false, i1 false, i32 0, i32 0, null, i32 256, i1 false, null, metadata !843, i32 0, metadata !130, i32 1451} ; [ DW_TAG_subprogram ]
!839 = metadata !{i32 786453, i32 0, metadata !"", i32 0, i32 0, i64 0, i64 0, i64 0, i32 0, null, metadata !840, i32 0, i32 0} ; [ DW_TAG_subroutine_type ]
!840 = metadata !{null, metadata !837, metadata !841}
!841 = metadata !{i32 786448, null, null, null, i32 0, i64 0, i64 0, i64 0, i32 0, metadata !842} ; [ DW_TAG_reference_type ]
!842 = metadata !{i32 786470, null, metadata !"", null, i32 0, i64 0, i64 0, i64 0, i32 0, metadata !816} ; [ DW_TAG_const_type ]
!843 = metadata !{metadata !844, metadata !160}
!844 = metadata !{i32 786480, null, metadata !"_AP_W2", metadata !139, i64 4, null, i32 0, i32 0} ; [ DW_TAG_template_value_parameter ]
!845 = metadata !{i32 786478, i32 0, metadata !816, metadata !"ap_int_base<4, false>", metadata !"ap_int_base<4, false>", metadata !"", metadata !163, i32 1454, metadata !846, i1 false, i1 false, i32 0, i32 0, null, i32 256, i1 false, null, metadata !843, i32 0, metadata !130, i32 1454} ; [ DW_TAG_subprogram ]
!846 = metadata !{i32 786453, i32 0, metadata !"", i32 0, i32 0, i64 0, i64 0, i64 0, i32 0, null, metadata !847, i32 0, i32 0} ; [ DW_TAG_subroutine_type ]
!847 = metadata !{null, metadata !837, metadata !848}
!848 = metadata !{i32 786448, null, null, null, i32 0, i64 0, i64 0, i64 0, i32 0, metadata !849} ; [ DW_TAG_reference_type ]
!849 = metadata !{i32 786470, null, metadata !"", null, i32 0, i64 0, i64 0, i64 0, i32 0, metadata !850} ; [ DW_TAG_const_type ]
!850 = metadata !{i32 786485, null, metadata !"", null, i32 0, i64 0, i64 0, i64 0, i32 0, metadata !816} ; [ DW_TAG_volatile_type ]
!851 = metadata !{i32 786478, i32 0, metadata !816, metadata !"ap_int_base", metadata !"ap_int_base", metadata !"", metadata !163, i32 1461, metadata !852, i1 false, i1 false, i32 0, i32 0, null, i32 384, i1 false, null, null, i32 0, metadata !130, i32 1461} ; [ DW_TAG_subprogram ]
!852 = metadata !{i32 786453, i32 0, metadata !"", i32 0, i32 0, i64 0, i64 0, i64 0, i32 0, null, metadata !853, i32 0, i32 0} ; [ DW_TAG_subroutine_type ]
!853 = metadata !{null, metadata !837, metadata !141}
!854 = metadata !{i32 786478, i32 0, metadata !816, metadata !"ap_int_base", metadata !"ap_int_base", metadata !"", metadata !163, i32 1462, metadata !855, i1 false, i1 false, i32 0, i32 0, null, i32 384, i1 false, null, null, i32 0, metadata !130, i32 1462} ; [ DW_TAG_subprogram ]
!855 = metadata !{i32 786453, i32 0, metadata !"", i32 0, i32 0, i64 0, i64 0, i64 0, i32 0, null, metadata !856, i32 0, i32 0} ; [ DW_TAG_subroutine_type ]
!856 = metadata !{null, metadata !837, metadata !197}
!857 = metadata !{i32 786478, i32 0, metadata !816, metadata !"ap_int_base", metadata !"ap_int_base", metadata !"", metadata !163, i32 1463, metadata !858, i1 false, i1 false, i32 0, i32 0, null, i32 384, i1 false, null, null, i32 0, metadata !130, i32 1463} ; [ DW_TAG_subprogram ]
!858 = metadata !{i32 786453, i32 0, metadata !"", i32 0, i32 0, i64 0, i64 0, i64 0, i32 0, null, metadata !859, i32 0, i32 0} ; [ DW_TAG_subroutine_type ]
!859 = metadata !{null, metadata !837, metadata !201}
!860 = metadata !{i32 786478, i32 0, metadata !816, metadata !"ap_int_base", metadata !"ap_int_base", metadata !"", metadata !163, i32 1464, metadata !861, i1 false, i1 false, i32 0, i32 0, null, i32 384, i1 false, null, null, i32 0, metadata !130, i32 1464} ; [ DW_TAG_subprogram ]
!861 = metadata !{i32 786453, i32 0, metadata !"", i32 0, i32 0, i64 0, i64 0, i64 0, i32 0, null, metadata !862, i32 0, i32 0} ; [ DW_TAG_subroutine_type ]
!862 = metadata !{null, metadata !837, metadata !205}
!863 = metadata !{i32 786478, i32 0, metadata !816, metadata !"ap_int_base", metadata !"ap_int_base", metadata !"", metadata !163, i32 1465, metadata !864, i1 false, i1 false, i32 0, i32 0, null, i32 384, i1 false, null, null, i32 0, metadata !130, i32 1465} ; [ DW_TAG_subprogram ]
!864 = metadata !{i32 786453, i32 0, metadata !"", i32 0, i32 0, i64 0, i64 0, i64 0, i32 0, null, metadata !865, i32 0, i32 0} ; [ DW_TAG_subroutine_type ]
!865 = metadata !{null, metadata !837, metadata !209}
!866 = metadata !{i32 786478, i32 0, metadata !816, metadata !"ap_int_base", metadata !"ap_int_base", metadata !"", metadata !163, i32 1466, metadata !867, i1 false, i1 false, i32 0, i32 0, null, i32 384, i1 false, null, null, i32 0, metadata !130, i32 1466} ; [ DW_TAG_subprogram ]
!867 = metadata !{i32 786453, i32 0, metadata !"", i32 0, i32 0, i64 0, i64 0, i64 0, i32 0, null, metadata !868, i32 0, i32 0} ; [ DW_TAG_subroutine_type ]
!868 = metadata !{null, metadata !837, metadata !139}
!869 = metadata !{i32 786478, i32 0, metadata !816, metadata !"ap_int_base", metadata !"ap_int_base", metadata !"", metadata !163, i32 1467, metadata !870, i1 false, i1 false, i32 0, i32 0, null, i32 384, i1 false, null, null, i32 0, metadata !130, i32 1467} ; [ DW_TAG_subprogram ]
!870 = metadata !{i32 786453, i32 0, metadata !"", i32 0, i32 0, i64 0, i64 0, i64 0, i32 0, null, metadata !871, i32 0, i32 0} ; [ DW_TAG_subroutine_type ]
!871 = metadata !{null, metadata !837, metadata !216}
!872 = metadata !{i32 786478, i32 0, metadata !816, metadata !"ap_int_base", metadata !"ap_int_base", metadata !"", metadata !163, i32 1468, metadata !873, i1 false, i1 false, i32 0, i32 0, null, i32 384, i1 false, null, null, i32 0, metadata !130, i32 1468} ; [ DW_TAG_subprogram ]
!873 = metadata !{i32 786453, i32 0, metadata !"", i32 0, i32 0, i64 0, i64 0, i64 0, i32 0, null, metadata !874, i32 0, i32 0} ; [ DW_TAG_subroutine_type ]
!874 = metadata !{null, metadata !837, metadata !220}
!875 = metadata !{i32 786478, i32 0, metadata !816, metadata !"ap_int_base", metadata !"ap_int_base", metadata !"", metadata !163, i32 1469, metadata !876, i1 false, i1 false, i32 0, i32 0, null, i32 384, i1 false, null, null, i32 0, metadata !130, i32 1469} ; [ DW_TAG_subprogram ]
!876 = metadata !{i32 786453, i32 0, metadata !"", i32 0, i32 0, i64 0, i64 0, i64 0, i32 0, null, metadata !877, i32 0, i32 0} ; [ DW_TAG_subroutine_type ]
!877 = metadata !{null, metadata !837, metadata !224}
!878 = metadata !{i32 786478, i32 0, metadata !816, metadata !"ap_int_base", metadata !"ap_int_base", metadata !"", metadata !163, i32 1470, metadata !879, i1 false, i1 false, i32 0, i32 0, null, i32 384, i1 false, null, null, i32 0, metadata !130, i32 1470} ; [ DW_TAG_subprogram ]
!879 = metadata !{i32 786453, i32 0, metadata !"", i32 0, i32 0, i64 0, i64 0, i64 0, i32 0, null, metadata !880, i32 0, i32 0} ; [ DW_TAG_subroutine_type ]
!880 = metadata !{null, metadata !837, metadata !228}
!881 = metadata !{i32 786478, i32 0, metadata !816, metadata !"ap_int_base", metadata !"ap_int_base", metadata !"", metadata !163, i32 1471, metadata !882, i1 false, i1 false, i32 0, i32 0, null, i32 384, i1 false, null, null, i32 0, metadata !130, i32 1471} ; [ DW_TAG_subprogram ]
!882 = metadata !{i32 786453, i32 0, metadata !"", i32 0, i32 0, i64 0, i64 0, i64 0, i32 0, null, metadata !883, i32 0, i32 0} ; [ DW_TAG_subroutine_type ]
!883 = metadata !{null, metadata !837, metadata !233}
!884 = metadata !{i32 786478, i32 0, metadata !816, metadata !"ap_int_base", metadata !"ap_int_base", metadata !"", metadata !163, i32 1472, metadata !885, i1 false, i1 false, i32 0, i32 0, null, i32 384, i1 false, null, null, i32 0, metadata !130, i32 1472} ; [ DW_TAG_subprogram ]
!885 = metadata !{i32 786453, i32 0, metadata !"", i32 0, i32 0, i64 0, i64 0, i64 0, i32 0, null, metadata !886, i32 0, i32 0} ; [ DW_TAG_subroutine_type ]
!886 = metadata !{null, metadata !837, metadata !255}
!887 = metadata !{i32 786478, i32 0, metadata !816, metadata !"ap_int_base", metadata !"ap_int_base", metadata !"", metadata !163, i32 1473, metadata !888, i1 false, i1 false, i32 0, i32 0, null, i32 384, i1 false, null, null, i32 0, metadata !130, i32 1473} ; [ DW_TAG_subprogram ]
!888 = metadata !{i32 786453, i32 0, metadata !"", i32 0, i32 0, i64 0, i64 0, i64 0, i32 0, null, metadata !889, i32 0, i32 0} ; [ DW_TAG_subroutine_type ]
!889 = metadata !{null, metadata !837, metadata !251}
!890 = metadata !{i32 786478, i32 0, metadata !816, metadata !"ap_int_base", metadata !"ap_int_base", metadata !"", metadata !163, i32 1474, metadata !891, i1 false, i1 false, i32 0, i32 0, null, i32 384, i1 false, null, null, i32 0, metadata !130, i32 1474} ; [ DW_TAG_subprogram ]
!891 = metadata !{i32 786453, i32 0, metadata !"", i32 0, i32 0, i64 0, i64 0, i64 0, i32 0, null, metadata !892, i32 0, i32 0} ; [ DW_TAG_subroutine_type ]
!892 = metadata !{null, metadata !837, metadata !247}
!893 = metadata !{i32 786478, i32 0, metadata !816, metadata !"ap_int_base", metadata !"ap_int_base", metadata !"", metadata !163, i32 1501, metadata !894, i1 false, i1 false, i32 0, i32 0, null, i32 256, i1 false, null, null, i32 0, metadata !130, i32 1501} ; [ DW_TAG_subprogram ]
!894 = metadata !{i32 786453, i32 0, metadata !"", i32 0, i32 0, i64 0, i64 0, i64 0, i32 0, null, metadata !895, i32 0, i32 0} ; [ DW_TAG_subroutine_type ]
!895 = metadata !{null, metadata !837, metadata !238}
!896 = metadata !{i32 786478, i32 0, metadata !816, metadata !"ap_int_base", metadata !"ap_int_base", metadata !"", metadata !163, i32 1508, metadata !897, i1 false, i1 false, i32 0, i32 0, null, i32 256, i1 false, null, null, i32 0, metadata !130, i32 1508} ; [ DW_TAG_subprogram ]
!897 = metadata !{i32 786453, i32 0, metadata !"", i32 0, i32 0, i64 0, i64 0, i64 0, i32 0, null, metadata !898, i32 0, i32 0} ; [ DW_TAG_subroutine_type ]
!898 = metadata !{null, metadata !837, metadata !238, metadata !197}
!899 = metadata !{i32 786478, i32 0, metadata !816, metadata !"read", metadata !"read", metadata !"_ZNV11ap_int_baseILi4ELb0ELb1EE4readEv", metadata !163, i32 1529, metadata !900, i1 false, i1 false, i32 0, i32 0, null, i32 256, i1 false, null, null, i32 0, metadata !130, i32 1529} ; [ DW_TAG_subprogram ]
!900 = metadata !{i32 786453, i32 0, metadata !"", i32 0, i32 0, i64 0, i64 0, i64 0, i32 0, null, metadata !901, i32 0, i32 0} ; [ DW_TAG_subroutine_type ]
!901 = metadata !{metadata !816, metadata !902}
!902 = metadata !{i32 786447, i32 0, metadata !"", i32 0, i32 0, i64 32, i64 32, i64 0, i32 64, metadata !850} ; [ DW_TAG_pointer_type ]
!903 = metadata !{i32 786478, i32 0, metadata !816, metadata !"write", metadata !"write", metadata !"_ZNV11ap_int_baseILi4ELb0ELb1EE5writeERKS0_", metadata !163, i32 1535, metadata !904, i1 false, i1 false, i32 0, i32 0, null, i32 256, i1 false, null, null, i32 0, metadata !130, i32 1535} ; [ DW_TAG_subprogram ]
!904 = metadata !{i32 786453, i32 0, metadata !"", i32 0, i32 0, i64 0, i64 0, i64 0, i32 0, null, metadata !905, i32 0, i32 0} ; [ DW_TAG_subroutine_type ]
!905 = metadata !{null, metadata !902, metadata !841}
!906 = metadata !{i32 786478, i32 0, metadata !816, metadata !"operator=", metadata !"operator=", metadata !"_ZNV11ap_int_baseILi4ELb0ELb1EEaSERVKS0_", metadata !163, i32 1547, metadata !907, i1 false, i1 false, i32 0, i32 0, null, i32 256, i1 false, null, null, i32 0, metadata !130, i32 1547} ; [ DW_TAG_subprogram ]
!907 = metadata !{i32 786453, i32 0, metadata !"", i32 0, i32 0, i64 0, i64 0, i64 0, i32 0, null, metadata !908, i32 0, i32 0} ; [ DW_TAG_subroutine_type ]
!908 = metadata !{null, metadata !902, metadata !848}
!909 = metadata !{i32 786478, i32 0, metadata !816, metadata !"operator=", metadata !"operator=", metadata !"_ZNV11ap_int_baseILi4ELb0ELb1EEaSERKS0_", metadata !163, i32 1556, metadata !904, i1 false, i1 false, i32 0, i32 0, null, i32 256, i1 false, null, null, i32 0, metadata !130, i32 1556} ; [ DW_TAG_subprogram ]
!910 = metadata !{i32 786478, i32 0, metadata !816, metadata !"operator=", metadata !"operator=", metadata !"_ZN11ap_int_baseILi4ELb0ELb1EEaSERVKS0_", metadata !163, i32 1579, metadata !911, i1 false, i1 false, i32 0, i32 0, null, i32 256, i1 false, null, null, i32 0, metadata !130, i32 1579} ; [ DW_TAG_subprogram ]
!911 = metadata !{i32 786453, i32 0, metadata !"", i32 0, i32 0, i64 0, i64 0, i64 0, i32 0, null, metadata !912, i32 0, i32 0} ; [ DW_TAG_subroutine_type ]
!912 = metadata !{metadata !913, metadata !837, metadata !848}
!913 = metadata !{i32 786448, null, null, null, i32 0, i64 0, i64 0, i64 0, i32 0, metadata !816} ; [ DW_TAG_reference_type ]
!914 = metadata !{i32 786478, i32 0, metadata !816, metadata !"operator=", metadata !"operator=", metadata !"_ZN11ap_int_baseILi4ELb0ELb1EEaSERKS0_", metadata !163, i32 1584, metadata !915, i1 false, i1 false, i32 0, i32 0, null, i32 256, i1 false, null, null, i32 0, metadata !130, i32 1584} ; [ DW_TAG_subprogram ]
!915 = metadata !{i32 786453, i32 0, metadata !"", i32 0, i32 0, i64 0, i64 0, i64 0, i32 0, null, metadata !916, i32 0, i32 0} ; [ DW_TAG_subroutine_type ]
!916 = metadata !{metadata !913, metadata !837, metadata !841}
!917 = metadata !{i32 786478, i32 0, metadata !816, metadata !"operator=", metadata !"operator=", metadata !"_ZN11ap_int_baseILi4ELb0ELb1EEaSEPKc", metadata !163, i32 1588, metadata !918, i1 false, i1 false, i32 0, i32 0, null, i32 256, i1 false, null, null, i32 0, metadata !130, i32 1588} ; [ DW_TAG_subprogram ]
!918 = metadata !{i32 786453, i32 0, metadata !"", i32 0, i32 0, i64 0, i64 0, i64 0, i32 0, null, metadata !919, i32 0, i32 0} ; [ DW_TAG_subroutine_type ]
!919 = metadata !{metadata !913, metadata !837, metadata !238}
!920 = metadata !{i32 786478, i32 0, metadata !816, metadata !"set", metadata !"set", metadata !"_ZN11ap_int_baseILi4ELb0ELb1EE3setEPKca", metadata !163, i32 1596, metadata !921, i1 false, i1 false, i32 0, i32 0, null, i32 256, i1 false, null, null, i32 0, metadata !130, i32 1596} ; [ DW_TAG_subprogram ]
!921 = metadata !{i32 786453, i32 0, metadata !"", i32 0, i32 0, i64 0, i64 0, i64 0, i32 0, null, metadata !922, i32 0, i32 0} ; [ DW_TAG_subroutine_type ]
!922 = metadata !{metadata !913, metadata !837, metadata !238, metadata !197}
!923 = metadata !{i32 786478, i32 0, metadata !816, metadata !"operator=", metadata !"operator=", metadata !"_ZN11ap_int_baseILi4ELb0ELb1EEaSEa", metadata !163, i32 1610, metadata !924, i1 false, i1 false, i32 0, i32 0, null, i32 256, i1 false, null, null, i32 0, metadata !130, i32 1610} ; [ DW_TAG_subprogram ]
!924 = metadata !{i32 786453, i32 0, metadata !"", i32 0, i32 0, i64 0, i64 0, i64 0, i32 0, null, metadata !925, i32 0, i32 0} ; [ DW_TAG_subroutine_type ]
!925 = metadata !{metadata !913, metadata !837, metadata !197}
!926 = metadata !{i32 786478, i32 0, metadata !816, metadata !"operator=", metadata !"operator=", metadata !"_ZN11ap_int_baseILi4ELb0ELb1EEaSEh", metadata !163, i32 1611, metadata !927, i1 false, i1 false, i32 0, i32 0, null, i32 256, i1 false, null, null, i32 0, metadata !130, i32 1611} ; [ DW_TAG_subprogram ]
!927 = metadata !{i32 786453, i32 0, metadata !"", i32 0, i32 0, i64 0, i64 0, i64 0, i32 0, null, metadata !928, i32 0, i32 0} ; [ DW_TAG_subroutine_type ]
!928 = metadata !{metadata !913, metadata !837, metadata !201}
!929 = metadata !{i32 786478, i32 0, metadata !816, metadata !"operator=", metadata !"operator=", metadata !"_ZN11ap_int_baseILi4ELb0ELb1EEaSEs", metadata !163, i32 1612, metadata !930, i1 false, i1 false, i32 0, i32 0, null, i32 256, i1 false, null, null, i32 0, metadata !130, i32 1612} ; [ DW_TAG_subprogram ]
!930 = metadata !{i32 786453, i32 0, metadata !"", i32 0, i32 0, i64 0, i64 0, i64 0, i32 0, null, metadata !931, i32 0, i32 0} ; [ DW_TAG_subroutine_type ]
!931 = metadata !{metadata !913, metadata !837, metadata !205}
!932 = metadata !{i32 786478, i32 0, metadata !816, metadata !"operator=", metadata !"operator=", metadata !"_ZN11ap_int_baseILi4ELb0ELb1EEaSEt", metadata !163, i32 1613, metadata !933, i1 false, i1 false, i32 0, i32 0, null, i32 256, i1 false, null, null, i32 0, metadata !130, i32 1613} ; [ DW_TAG_subprogram ]
!933 = metadata !{i32 786453, i32 0, metadata !"", i32 0, i32 0, i64 0, i64 0, i64 0, i32 0, null, metadata !934, i32 0, i32 0} ; [ DW_TAG_subroutine_type ]
!934 = metadata !{metadata !913, metadata !837, metadata !209}
!935 = metadata !{i32 786478, i32 0, metadata !816, metadata !"operator=", metadata !"operator=", metadata !"_ZN11ap_int_baseILi4ELb0ELb1EEaSEi", metadata !163, i32 1614, metadata !936, i1 false, i1 false, i32 0, i32 0, null, i32 256, i1 false, null, null, i32 0, metadata !130, i32 1614} ; [ DW_TAG_subprogram ]
!936 = metadata !{i32 786453, i32 0, metadata !"", i32 0, i32 0, i64 0, i64 0, i64 0, i32 0, null, metadata !937, i32 0, i32 0} ; [ DW_TAG_subroutine_type ]
!937 = metadata !{metadata !913, metadata !837, metadata !139}
!938 = metadata !{i32 786478, i32 0, metadata !816, metadata !"operator=", metadata !"operator=", metadata !"_ZN11ap_int_baseILi4ELb0ELb1EEaSEj", metadata !163, i32 1615, metadata !939, i1 false, i1 false, i32 0, i32 0, null, i32 256, i1 false, null, null, i32 0, metadata !130, i32 1615} ; [ DW_TAG_subprogram ]
!939 = metadata !{i32 786453, i32 0, metadata !"", i32 0, i32 0, i64 0, i64 0, i64 0, i32 0, null, metadata !940, i32 0, i32 0} ; [ DW_TAG_subroutine_type ]
!940 = metadata !{metadata !913, metadata !837, metadata !216}
!941 = metadata !{i32 786478, i32 0, metadata !816, metadata !"operator=", metadata !"operator=", metadata !"_ZN11ap_int_baseILi4ELb0ELb1EEaSEx", metadata !163, i32 1616, metadata !942, i1 false, i1 false, i32 0, i32 0, null, i32 256, i1 false, null, null, i32 0, metadata !130, i32 1616} ; [ DW_TAG_subprogram ]
!942 = metadata !{i32 786453, i32 0, metadata !"", i32 0, i32 0, i64 0, i64 0, i64 0, i32 0, null, metadata !943, i32 0, i32 0} ; [ DW_TAG_subroutine_type ]
!943 = metadata !{metadata !913, metadata !837, metadata !228}
!944 = metadata !{i32 786478, i32 0, metadata !816, metadata !"operator=", metadata !"operator=", metadata !"_ZN11ap_int_baseILi4ELb0ELb1EEaSEy", metadata !163, i32 1617, metadata !945, i1 false, i1 false, i32 0, i32 0, null, i32 256, i1 false, null, null, i32 0, metadata !130, i32 1617} ; [ DW_TAG_subprogram ]
!945 = metadata !{i32 786453, i32 0, metadata !"", i32 0, i32 0, i64 0, i64 0, i64 0, i32 0, null, metadata !946, i32 0, i32 0} ; [ DW_TAG_subroutine_type ]
!946 = metadata !{metadata !913, metadata !837, metadata !233}
!947 = metadata !{i32 786478, i32 0, metadata !816, metadata !"operator unsigned char", metadata !"operator unsigned char", metadata !"_ZNK11ap_int_baseILi4ELb0ELb1EEcvhEv", metadata !163, i32 1655, metadata !948, i1 false, i1 false, i32 0, i32 0, null, i32 256, i1 false, null, null, i32 0, metadata !130, i32 1655} ; [ DW_TAG_subprogram ]
!948 = metadata !{i32 786453, i32 0, metadata !"", i32 0, i32 0, i64 0, i64 0, i64 0, i32 0, null, metadata !949, i32 0, i32 0} ; [ DW_TAG_subroutine_type ]
!949 = metadata !{metadata !950, metadata !955}
!950 = metadata !{i32 786454, metadata !816, metadata !"RetType", metadata !163, i32 1403, i64 0, i64 0, i64 0, i32 0, metadata !951} ; [ DW_TAG_typedef ]
!951 = metadata !{i32 786454, metadata !952, metadata !"Type", metadata !163, i32 1371, i64 0, i64 0, i64 0, i32 0, metadata !201} ; [ DW_TAG_typedef ]
!952 = metadata !{i32 786434, null, metadata !"retval<1, false>", metadata !163, i32 1370, i64 8, i64 8, i32 0, i32 0, null, metadata !435, i32 0, null, metadata !953} ; [ DW_TAG_class_type ]
!953 = metadata !{metadata !954, metadata !140}
!954 = metadata !{i32 786480, null, metadata !"_AP_N", metadata !139, i64 1, null, i32 0, i32 0} ; [ DW_TAG_template_value_parameter ]
!955 = metadata !{i32 786447, i32 0, metadata !"", i32 0, i32 0, i64 32, i64 32, i64 0, i32 64, metadata !842} ; [ DW_TAG_pointer_type ]
!956 = metadata !{i32 786478, i32 0, metadata !816, metadata !"to_bool", metadata !"to_bool", metadata !"_ZNK11ap_int_baseILi4ELb0ELb1EE7to_boolEv", metadata !163, i32 1661, metadata !957, i1 false, i1 false, i32 0, i32 0, null, i32 256, i1 false, null, null, i32 0, metadata !130, i32 1661} ; [ DW_TAG_subprogram ]
!957 = metadata !{i32 786453, i32 0, metadata !"", i32 0, i32 0, i64 0, i64 0, i64 0, i32 0, null, metadata !958, i32 0, i32 0} ; [ DW_TAG_subroutine_type ]
!958 = metadata !{metadata !141, metadata !955}
!959 = metadata !{i32 786478, i32 0, metadata !816, metadata !"to_uchar", metadata !"to_uchar", metadata !"_ZNK11ap_int_baseILi4ELb0ELb1EE8to_ucharEv", metadata !163, i32 1662, metadata !960, i1 false, i1 false, i32 0, i32 0, null, i32 256, i1 false, null, null, i32 0, metadata !130, i32 1662} ; [ DW_TAG_subprogram ]
!960 = metadata !{i32 786453, i32 0, metadata !"", i32 0, i32 0, i64 0, i64 0, i64 0, i32 0, null, metadata !961, i32 0, i32 0} ; [ DW_TAG_subroutine_type ]
!961 = metadata !{metadata !201, metadata !955}
!962 = metadata !{i32 786478, i32 0, metadata !816, metadata !"to_char", metadata !"to_char", metadata !"_ZNK11ap_int_baseILi4ELb0ELb1EE7to_charEv", metadata !163, i32 1663, metadata !963, i1 false, i1 false, i32 0, i32 0, null, i32 256, i1 false, null, null, i32 0, metadata !130, i32 1663} ; [ DW_TAG_subprogram ]
!963 = metadata !{i32 786453, i32 0, metadata !"", i32 0, i32 0, i64 0, i64 0, i64 0, i32 0, null, metadata !964, i32 0, i32 0} ; [ DW_TAG_subroutine_type ]
!964 = metadata !{metadata !197, metadata !955}
!965 = metadata !{i32 786478, i32 0, metadata !816, metadata !"to_ushort", metadata !"to_ushort", metadata !"_ZNK11ap_int_baseILi4ELb0ELb1EE9to_ushortEv", metadata !163, i32 1664, metadata !966, i1 false, i1 false, i32 0, i32 0, null, i32 256, i1 false, null, null, i32 0, metadata !130, i32 1664} ; [ DW_TAG_subprogram ]
!966 = metadata !{i32 786453, i32 0, metadata !"", i32 0, i32 0, i64 0, i64 0, i64 0, i32 0, null, metadata !967, i32 0, i32 0} ; [ DW_TAG_subroutine_type ]
!967 = metadata !{metadata !209, metadata !955}
!968 = metadata !{i32 786478, i32 0, metadata !816, metadata !"to_short", metadata !"to_short", metadata !"_ZNK11ap_int_baseILi4ELb0ELb1EE8to_shortEv", metadata !163, i32 1665, metadata !969, i1 false, i1 false, i32 0, i32 0, null, i32 256, i1 false, null, null, i32 0, metadata !130, i32 1665} ; [ DW_TAG_subprogram ]
!969 = metadata !{i32 786453, i32 0, metadata !"", i32 0, i32 0, i64 0, i64 0, i64 0, i32 0, null, metadata !970, i32 0, i32 0} ; [ DW_TAG_subroutine_type ]
!970 = metadata !{metadata !205, metadata !955}
!971 = metadata !{i32 786478, i32 0, metadata !816, metadata !"to_int", metadata !"to_int", metadata !"_ZNK11ap_int_baseILi4ELb0ELb1EE6to_intEv", metadata !163, i32 1666, metadata !972, i1 false, i1 false, i32 0, i32 0, null, i32 256, i1 false, null, null, i32 0, metadata !130, i32 1666} ; [ DW_TAG_subprogram ]
!972 = metadata !{i32 786453, i32 0, metadata !"", i32 0, i32 0, i64 0, i64 0, i64 0, i32 0, null, metadata !973, i32 0, i32 0} ; [ DW_TAG_subroutine_type ]
!973 = metadata !{metadata !139, metadata !955}
!974 = metadata !{i32 786478, i32 0, metadata !816, metadata !"to_uint", metadata !"to_uint", metadata !"_ZNK11ap_int_baseILi4ELb0ELb1EE7to_uintEv", metadata !163, i32 1667, metadata !975, i1 false, i1 false, i32 0, i32 0, null, i32 256, i1 false, null, null, i32 0, metadata !130, i32 1667} ; [ DW_TAG_subprogram ]
!975 = metadata !{i32 786453, i32 0, metadata !"", i32 0, i32 0, i64 0, i64 0, i64 0, i32 0, null, metadata !976, i32 0, i32 0} ; [ DW_TAG_subroutine_type ]
!976 = metadata !{metadata !216, metadata !955}
!977 = metadata !{i32 786478, i32 0, metadata !816, metadata !"to_long", metadata !"to_long", metadata !"_ZNK11ap_int_baseILi4ELb0ELb1EE7to_longEv", metadata !163, i32 1668, metadata !978, i1 false, i1 false, i32 0, i32 0, null, i32 256, i1 false, null, null, i32 0, metadata !130, i32 1668} ; [ DW_TAG_subprogram ]
!978 = metadata !{i32 786453, i32 0, metadata !"", i32 0, i32 0, i64 0, i64 0, i64 0, i32 0, null, metadata !979, i32 0, i32 0} ; [ DW_TAG_subroutine_type ]
!979 = metadata !{metadata !220, metadata !955}
!980 = metadata !{i32 786478, i32 0, metadata !816, metadata !"to_ulong", metadata !"to_ulong", metadata !"_ZNK11ap_int_baseILi4ELb0ELb1EE8to_ulongEv", metadata !163, i32 1669, metadata !981, i1 false, i1 false, i32 0, i32 0, null, i32 256, i1 false, null, null, i32 0, metadata !130, i32 1669} ; [ DW_TAG_subprogram ]
!981 = metadata !{i32 786453, i32 0, metadata !"", i32 0, i32 0, i64 0, i64 0, i64 0, i32 0, null, metadata !982, i32 0, i32 0} ; [ DW_TAG_subroutine_type ]
!982 = metadata !{metadata !224, metadata !955}
!983 = metadata !{i32 786478, i32 0, metadata !816, metadata !"to_int64", metadata !"to_int64", metadata !"_ZNK11ap_int_baseILi4ELb0ELb1EE8to_int64Ev", metadata !163, i32 1670, metadata !984, i1 false, i1 false, i32 0, i32 0, null, i32 256, i1 false, null, null, i32 0, metadata !130, i32 1670} ; [ DW_TAG_subprogram ]
!984 = metadata !{i32 786453, i32 0, metadata !"", i32 0, i32 0, i64 0, i64 0, i64 0, i32 0, null, metadata !985, i32 0, i32 0} ; [ DW_TAG_subroutine_type ]
!985 = metadata !{metadata !228, metadata !955}
!986 = metadata !{i32 786478, i32 0, metadata !816, metadata !"to_uint64", metadata !"to_uint64", metadata !"_ZNK11ap_int_baseILi4ELb0ELb1EE9to_uint64Ev", metadata !163, i32 1671, metadata !987, i1 false, i1 false, i32 0, i32 0, null, i32 256, i1 false, null, null, i32 0, metadata !130, i32 1671} ; [ DW_TAG_subprogram ]
!987 = metadata !{i32 786453, i32 0, metadata !"", i32 0, i32 0, i64 0, i64 0, i64 0, i32 0, null, metadata !988, i32 0, i32 0} ; [ DW_TAG_subroutine_type ]
!988 = metadata !{metadata !233, metadata !955}
!989 = metadata !{i32 786478, i32 0, metadata !816, metadata !"to_double", metadata !"to_double", metadata !"_ZNK11ap_int_baseILi4ELb0ELb1EE9to_doubleEv", metadata !163, i32 1672, metadata !990, i1 false, i1 false, i32 0, i32 0, null, i32 256, i1 false, null, null, i32 0, metadata !130, i32 1672} ; [ DW_TAG_subprogram ]
!990 = metadata !{i32 786453, i32 0, metadata !"", i32 0, i32 0, i64 0, i64 0, i64 0, i32 0, null, metadata !991, i32 0, i32 0} ; [ DW_TAG_subroutine_type ]
!991 = metadata !{metadata !247, metadata !955}
!992 = metadata !{i32 786478, i32 0, metadata !816, metadata !"length", metadata !"length", metadata !"_ZNK11ap_int_baseILi4ELb0ELb1EE6lengthEv", metadata !163, i32 1686, metadata !972, i1 false, i1 false, i32 0, i32 0, null, i32 256, i1 false, null, null, i32 0, metadata !130, i32 1686} ; [ DW_TAG_subprogram ]
!993 = metadata !{i32 786478, i32 0, metadata !816, metadata !"length", metadata !"length", metadata !"_ZNVK11ap_int_baseILi4ELb0ELb1EE6lengthEv", metadata !163, i32 1687, metadata !994, i1 false, i1 false, i32 0, i32 0, null, i32 256, i1 false, null, null, i32 0, metadata !130, i32 1687} ; [ DW_TAG_subprogram ]
!994 = metadata !{i32 786453, i32 0, metadata !"", i32 0, i32 0, i64 0, i64 0, i64 0, i32 0, null, metadata !995, i32 0, i32 0} ; [ DW_TAG_subroutine_type ]
!995 = metadata !{metadata !139, metadata !996}
!996 = metadata !{i32 786447, i32 0, metadata !"", i32 0, i32 0, i64 32, i64 32, i64 0, i32 64, metadata !849} ; [ DW_TAG_pointer_type ]
!997 = metadata !{i32 786478, i32 0, metadata !816, metadata !"reverse", metadata !"reverse", metadata !"_ZN11ap_int_baseILi4ELb0ELb1EE7reverseEv", metadata !163, i32 1692, metadata !998, i1 false, i1 false, i32 0, i32 0, null, i32 256, i1 false, null, null, i32 0, metadata !130, i32 1692} ; [ DW_TAG_subprogram ]
!998 = metadata !{i32 786453, i32 0, metadata !"", i32 0, i32 0, i64 0, i64 0, i64 0, i32 0, null, metadata !999, i32 0, i32 0} ; [ DW_TAG_subroutine_type ]
!999 = metadata !{metadata !913, metadata !837}
!1000 = metadata !{i32 786478, i32 0, metadata !816, metadata !"iszero", metadata !"iszero", metadata !"_ZNK11ap_int_baseILi4ELb0ELb1EE6iszeroEv", metadata !163, i32 1698, metadata !957, i1 false, i1 false, i32 0, i32 0, null, i32 256, i1 false, null, null, i32 0, metadata !130, i32 1698} ; [ DW_TAG_subprogram ]
!1001 = metadata !{i32 786478, i32 0, metadata !816, metadata !"is_zero", metadata !"is_zero", metadata !"_ZNK11ap_int_baseILi4ELb0ELb1EE7is_zeroEv", metadata !163, i32 1703, metadata !957, i1 false, i1 false, i32 0, i32 0, null, i32 256, i1 false, null, null, i32 0, metadata !130, i32 1703} ; [ DW_TAG_subprogram ]
!1002 = metadata !{i32 786478, i32 0, metadata !816, metadata !"sign", metadata !"sign", metadata !"_ZNK11ap_int_baseILi4ELb0ELb1EE4signEv", metadata !163, i32 1708, metadata !957, i1 false, i1 false, i32 0, i32 0, null, i32 256, i1 false, null, null, i32 0, metadata !130, i32 1708} ; [ DW_TAG_subprogram ]
!1003 = metadata !{i32 786478, i32 0, metadata !816, metadata !"clear", metadata !"clear", metadata !"_ZN11ap_int_baseILi4ELb0ELb1EE5clearEi", metadata !163, i32 1716, metadata !867, i1 false, i1 false, i32 0, i32 0, null, i32 256, i1 false, null, null, i32 0, metadata !130, i32 1716} ; [ DW_TAG_subprogram ]
!1004 = metadata !{i32 786478, i32 0, metadata !816, metadata !"invert", metadata !"invert", metadata !"_ZN11ap_int_baseILi4ELb0ELb1EE6invertEi", metadata !163, i32 1722, metadata !867, i1 false, i1 false, i32 0, i32 0, null, i32 256, i1 false, null, null, i32 0, metadata !130, i32 1722} ; [ DW_TAG_subprogram ]
!1005 = metadata !{i32 786478, i32 0, metadata !816, metadata !"test", metadata !"test", metadata !"_ZNK11ap_int_baseILi4ELb0ELb1EE4testEi", metadata !163, i32 1730, metadata !1006, i1 false, i1 false, i32 0, i32 0, null, i32 256, i1 false, null, null, i32 0, metadata !130, i32 1730} ; [ DW_TAG_subprogram ]
!1006 = metadata !{i32 786453, i32 0, metadata !"", i32 0, i32 0, i64 0, i64 0, i64 0, i32 0, null, metadata !1007, i32 0, i32 0} ; [ DW_TAG_subroutine_type ]
!1007 = metadata !{metadata !141, metadata !955, metadata !139}
!1008 = metadata !{i32 786478, i32 0, metadata !816, metadata !"set", metadata !"set", metadata !"_ZN11ap_int_baseILi4ELb0ELb1EE3setEi", metadata !163, i32 1736, metadata !867, i1 false, i1 false, i32 0, i32 0, null, i32 256, i1 false, null, null, i32 0, metadata !130, i32 1736} ; [ DW_TAG_subprogram ]
!1009 = metadata !{i32 786478, i32 0, metadata !816, metadata !"set", metadata !"set", metadata !"_ZN11ap_int_baseILi4ELb0ELb1EE3setEib", metadata !163, i32 1742, metadata !1010, i1 false, i1 false, i32 0, i32 0, null, i32 256, i1 false, null, null, i32 0, metadata !130, i32 1742} ; [ DW_TAG_subprogram ]
!1010 = metadata !{i32 786453, i32 0, metadata !"", i32 0, i32 0, i64 0, i64 0, i64 0, i32 0, null, metadata !1011, i32 0, i32 0} ; [ DW_TAG_subroutine_type ]
!1011 = metadata !{null, metadata !837, metadata !139, metadata !141}
!1012 = metadata !{i32 786478, i32 0, metadata !816, metadata !"lrotate", metadata !"lrotate", metadata !"_ZN11ap_int_baseILi4ELb0ELb1EE7lrotateEi", metadata !163, i32 1749, metadata !867, i1 false, i1 false, i32 0, i32 0, null, i32 256, i1 false, null, null, i32 0, metadata !130, i32 1749} ; [ DW_TAG_subprogram ]
!1013 = metadata !{i32 786478, i32 0, metadata !816, metadata !"rrotate", metadata !"rrotate", metadata !"_ZN11ap_int_baseILi4ELb0ELb1EE7rrotateEi", metadata !163, i32 1758, metadata !867, i1 false, i1 false, i32 0, i32 0, null, i32 256, i1 false, null, null, i32 0, metadata !130, i32 1758} ; [ DW_TAG_subprogram ]
!1014 = metadata !{i32 786478, i32 0, metadata !816, metadata !"set_bit", metadata !"set_bit", metadata !"_ZN11ap_int_baseILi4ELb0ELb1EE7set_bitEib", metadata !163, i32 1766, metadata !1010, i1 false, i1 false, i32 0, i32 0, null, i32 256, i1 false, null, null, i32 0, metadata !130, i32 1766} ; [ DW_TAG_subprogram ]
!1015 = metadata !{i32 786478, i32 0, metadata !816, metadata !"get_bit", metadata !"get_bit", metadata !"_ZNK11ap_int_baseILi4ELb0ELb1EE7get_bitEi", metadata !163, i32 1771, metadata !1006, i1 false, i1 false, i32 0, i32 0, null, i32 256, i1 false, null, null, i32 0, metadata !130, i32 1771} ; [ DW_TAG_subprogram ]
!1016 = metadata !{i32 786478, i32 0, metadata !816, metadata !"b_not", metadata !"b_not", metadata !"_ZN11ap_int_baseILi4ELb0ELb1EE5b_notEv", metadata !163, i32 1776, metadata !835, i1 false, i1 false, i32 0, i32 0, null, i32 256, i1 false, null, null, i32 0, metadata !130, i32 1776} ; [ DW_TAG_subprogram ]
!1017 = metadata !{i32 786478, i32 0, metadata !816, metadata !"countLeadingZeros", metadata !"countLeadingZeros", metadata !"_ZN11ap_int_baseILi4ELb0ELb1EE17countLeadingZerosEv", metadata !163, i32 1783, metadata !1018, i1 false, i1 false, i32 0, i32 0, null, i32 256, i1 false, null, null, i32 0, metadata !130, i32 1783} ; [ DW_TAG_subprogram ]
!1018 = metadata !{i32 786453, i32 0, metadata !"", i32 0, i32 0, i64 0, i64 0, i64 0, i32 0, null, metadata !1019, i32 0, i32 0} ; [ DW_TAG_subroutine_type ]
!1019 = metadata !{metadata !139, metadata !837}
!1020 = metadata !{i32 786478, i32 0, metadata !816, metadata !"operator++", metadata !"operator++", metadata !"_ZN11ap_int_baseILi4ELb0ELb1EEppEv", metadata !163, i32 1840, metadata !998, i1 false, i1 false, i32 0, i32 0, null, i32 256, i1 false, null, null, i32 0, metadata !130, i32 1840} ; [ DW_TAG_subprogram ]
!1021 = metadata !{i32 786478, i32 0, metadata !816, metadata !"operator--", metadata !"operator--", metadata !"_ZN11ap_int_baseILi4ELb0ELb1EEmmEv", metadata !163, i32 1844, metadata !998, i1 false, i1 false, i32 0, i32 0, null, i32 256, i1 false, null, null, i32 0, metadata !130, i32 1844} ; [ DW_TAG_subprogram ]
!1022 = metadata !{i32 786478, i32 0, metadata !816, metadata !"operator++", metadata !"operator++", metadata !"_ZN11ap_int_baseILi4ELb0ELb1EEppEi", metadata !163, i32 1852, metadata !1023, i1 false, i1 false, i32 0, i32 0, null, i32 256, i1 false, null, null, i32 0, metadata !130, i32 1852} ; [ DW_TAG_subprogram ]
!1023 = metadata !{i32 786453, i32 0, metadata !"", i32 0, i32 0, i64 0, i64 0, i64 0, i32 0, null, metadata !1024, i32 0, i32 0} ; [ DW_TAG_subroutine_type ]
!1024 = metadata !{metadata !842, metadata !837, metadata !139}
!1025 = metadata !{i32 786478, i32 0, metadata !816, metadata !"operator--", metadata !"operator--", metadata !"_ZN11ap_int_baseILi4ELb0ELb1EEmmEi", metadata !163, i32 1857, metadata !1023, i1 false, i1 false, i32 0, i32 0, null, i32 256, i1 false, null, null, i32 0, metadata !130, i32 1857} ; [ DW_TAG_subprogram ]
!1026 = metadata !{i32 786478, i32 0, metadata !816, metadata !"operator+", metadata !"operator+", metadata !"_ZNK11ap_int_baseILi4ELb0ELb1EEpsEv", metadata !163, i32 1866, metadata !1027, i1 false, i1 false, i32 0, i32 0, null, i32 256, i1 false, null, null, i32 0, metadata !130, i32 1866} ; [ DW_TAG_subprogram ]
!1027 = metadata !{i32 786453, i32 0, metadata !"", i32 0, i32 0, i64 0, i64 0, i64 0, i32 0, null, metadata !1028, i32 0, i32 0} ; [ DW_TAG_subroutine_type ]
!1028 = metadata !{metadata !816, metadata !955}
!1029 = metadata !{i32 786478, i32 0, metadata !816, metadata !"operator!", metadata !"operator!", metadata !"_ZNK11ap_int_baseILi4ELb0ELb1EEntEv", metadata !163, i32 1872, metadata !957, i1 false, i1 false, i32 0, i32 0, null, i32 256, i1 false, null, null, i32 0, metadata !130, i32 1872} ; [ DW_TAG_subprogram ]
!1030 = metadata !{i32 786478, i32 0, metadata !816, metadata !"operator-", metadata !"operator-", metadata !"_ZNK11ap_int_baseILi4ELb0ELb1EEngEv", metadata !163, i32 1877, metadata !1031, i1 false, i1 false, i32 0, i32 0, null, i32 256, i1 false, null, null, i32 0, metadata !130, i32 1877} ; [ DW_TAG_subprogram ]
!1031 = metadata !{i32 786453, i32 0, metadata !"", i32 0, i32 0, i64 0, i64 0, i64 0, i32 0, null, metadata !1032, i32 0, i32 0} ; [ DW_TAG_subroutine_type ]
!1032 = metadata !{metadata !1033, metadata !955}
!1033 = metadata !{i32 786434, null, metadata !"ap_int_base<5, true, true>", metadata !163, i32 1398, i64 8, i64 8, i32 0, i32 0, null, metadata !1034, i32 0, null, metadata !1277} ; [ DW_TAG_class_type ]
!1034 = metadata !{metadata !1035, metadata !1047, metadata !1051, metadata !1054, metadata !1057, metadata !1060, metadata !1063, metadata !1066, metadata !1069, metadata !1072, metadata !1075, metadata !1078, metadata !1081, metadata !1084, metadata !1087, metadata !1090, metadata !1093, metadata !1096, metadata !1099, metadata !1104, metadata !1109, metadata !1114, metadata !1115, metadata !1119, metadata !1122, metadata !1125, metadata !1128, metadata !1131, metadata !1134, metadata !1137, metadata !1140, metadata !1143, metadata !1146, metadata !1149, metadata !1152, metadata !1160, metadata !1163, metadata !1166, metadata !1169, metadata !1172, metadata !1175, metadata !1178, metadata !1181, metadata !1184, metadata !1187, metadata !1190, metadata !1193, metadata !1196, metadata !1197, metadata !1201, metadata !1204, metadata !1205, metadata !1206, metadata !1207, metadata !1208, metadata !1209, metadata !1212, metadata !1213, metadata !1216, metadata !1217, metadata !1218, metadata !1219, metadata !1220, metadata !1221, metadata !1224, metadata !1225, metadata !1226, metadata !1229, metadata !1230, metadata !1233, metadata !1234, metadata !1238, metadata !1242, metadata !1243, metadata !1246, metadata !1247, metadata !1251, metadata !1252, metadata !1253, metadata !1254, metadata !1257, metadata !1258, metadata !1259, metadata !1260, metadata !1261, metadata !1262, metadata !1263, metadata !1264, metadata !1265, metadata !1266, metadata !1267, metadata !1268, metadata !1271, metadata !1274}
!1035 = metadata !{i32 786460, metadata !1033, null, metadata !163, i32 0, i64 0, i64 0, i64 0, i32 0, metadata !1036} ; [ DW_TAG_inheritance ]
!1036 = metadata !{i32 786434, null, metadata !"ssdm_int<5 + 1024 * 0, true>", metadata !122, i32 7, i64 8, i64 8, i32 0, i32 0, null, metadata !1037, i32 0, null, metadata !1044} ; [ DW_TAG_class_type ]
!1037 = metadata !{metadata !1038, metadata !1040}
!1038 = metadata !{i32 786445, metadata !1036, metadata !"V", metadata !122, i32 7, i64 5, i64 8, i64 0, i32 0, metadata !1039} ; [ DW_TAG_member ]
!1039 = metadata !{i32 786468, null, metadata !"int5", null, i32 0, i64 5, i64 8, i64 0, i32 0, i32 5} ; [ DW_TAG_base_type ]
!1040 = metadata !{i32 786478, i32 0, metadata !1036, metadata !"ssdm_int", metadata !"ssdm_int", metadata !"", metadata !122, i32 7, metadata !1041, i1 false, i1 false, i32 0, i32 0, null, i32 256, i1 false, null, null, i32 0, metadata !130, i32 7} ; [ DW_TAG_subprogram ]
!1041 = metadata !{i32 786453, i32 0, metadata !"", i32 0, i32 0, i64 0, i64 0, i64 0, i32 0, null, metadata !1042, i32 0, i32 0} ; [ DW_TAG_subroutine_type ]
!1042 = metadata !{null, metadata !1043}
!1043 = metadata !{i32 786447, i32 0, metadata !"", i32 0, i32 0, i64 32, i64 32, i64 0, i32 64, metadata !1036} ; [ DW_TAG_pointer_type ]
!1044 = metadata !{metadata !1045, metadata !1046}
!1045 = metadata !{i32 786480, null, metadata !"_AP_N", metadata !139, i64 5, null, i32 0, i32 0} ; [ DW_TAG_template_value_parameter ]
!1046 = metadata !{i32 786480, null, metadata !"_AP_S", metadata !141, i64 1, null, i32 0, i32 0} ; [ DW_TAG_template_value_parameter ]
!1047 = metadata !{i32 786478, i32 0, metadata !1033, metadata !"ap_int_base", metadata !"ap_int_base", metadata !"", metadata !163, i32 1439, metadata !1048, i1 false, i1 false, i32 0, i32 0, null, i32 256, i1 false, null, null, i32 0, metadata !130, i32 1439} ; [ DW_TAG_subprogram ]
!1048 = metadata !{i32 786453, i32 0, metadata !"", i32 0, i32 0, i64 0, i64 0, i64 0, i32 0, null, metadata !1049, i32 0, i32 0} ; [ DW_TAG_subroutine_type ]
!1049 = metadata !{null, metadata !1050}
!1050 = metadata !{i32 786447, i32 0, metadata !"", i32 0, i32 0, i64 32, i64 32, i64 0, i32 64, metadata !1033} ; [ DW_TAG_pointer_type ]
!1051 = metadata !{i32 786478, i32 0, metadata !1033, metadata !"ap_int_base", metadata !"ap_int_base", metadata !"", metadata !163, i32 1461, metadata !1052, i1 false, i1 false, i32 0, i32 0, null, i32 384, i1 false, null, null, i32 0, metadata !130, i32 1461} ; [ DW_TAG_subprogram ]
!1052 = metadata !{i32 786453, i32 0, metadata !"", i32 0, i32 0, i64 0, i64 0, i64 0, i32 0, null, metadata !1053, i32 0, i32 0} ; [ DW_TAG_subroutine_type ]
!1053 = metadata !{null, metadata !1050, metadata !141}
!1054 = metadata !{i32 786478, i32 0, metadata !1033, metadata !"ap_int_base", metadata !"ap_int_base", metadata !"", metadata !163, i32 1462, metadata !1055, i1 false, i1 false, i32 0, i32 0, null, i32 384, i1 false, null, null, i32 0, metadata !130, i32 1462} ; [ DW_TAG_subprogram ]
!1055 = metadata !{i32 786453, i32 0, metadata !"", i32 0, i32 0, i64 0, i64 0, i64 0, i32 0, null, metadata !1056, i32 0, i32 0} ; [ DW_TAG_subroutine_type ]
!1056 = metadata !{null, metadata !1050, metadata !197}
!1057 = metadata !{i32 786478, i32 0, metadata !1033, metadata !"ap_int_base", metadata !"ap_int_base", metadata !"", metadata !163, i32 1463, metadata !1058, i1 false, i1 false, i32 0, i32 0, null, i32 384, i1 false, null, null, i32 0, metadata !130, i32 1463} ; [ DW_TAG_subprogram ]
!1058 = metadata !{i32 786453, i32 0, metadata !"", i32 0, i32 0, i64 0, i64 0, i64 0, i32 0, null, metadata !1059, i32 0, i32 0} ; [ DW_TAG_subroutine_type ]
!1059 = metadata !{null, metadata !1050, metadata !201}
!1060 = metadata !{i32 786478, i32 0, metadata !1033, metadata !"ap_int_base", metadata !"ap_int_base", metadata !"", metadata !163, i32 1464, metadata !1061, i1 false, i1 false, i32 0, i32 0, null, i32 384, i1 false, null, null, i32 0, metadata !130, i32 1464} ; [ DW_TAG_subprogram ]
!1061 = metadata !{i32 786453, i32 0, metadata !"", i32 0, i32 0, i64 0, i64 0, i64 0, i32 0, null, metadata !1062, i32 0, i32 0} ; [ DW_TAG_subroutine_type ]
!1062 = metadata !{null, metadata !1050, metadata !205}
!1063 = metadata !{i32 786478, i32 0, metadata !1033, metadata !"ap_int_base", metadata !"ap_int_base", metadata !"", metadata !163, i32 1465, metadata !1064, i1 false, i1 false, i32 0, i32 0, null, i32 384, i1 false, null, null, i32 0, metadata !130, i32 1465} ; [ DW_TAG_subprogram ]
!1064 = metadata !{i32 786453, i32 0, metadata !"", i32 0, i32 0, i64 0, i64 0, i64 0, i32 0, null, metadata !1065, i32 0, i32 0} ; [ DW_TAG_subroutine_type ]
!1065 = metadata !{null, metadata !1050, metadata !209}
!1066 = metadata !{i32 786478, i32 0, metadata !1033, metadata !"ap_int_base", metadata !"ap_int_base", metadata !"", metadata !163, i32 1466, metadata !1067, i1 false, i1 false, i32 0, i32 0, null, i32 384, i1 false, null, null, i32 0, metadata !130, i32 1466} ; [ DW_TAG_subprogram ]
!1067 = metadata !{i32 786453, i32 0, metadata !"", i32 0, i32 0, i64 0, i64 0, i64 0, i32 0, null, metadata !1068, i32 0, i32 0} ; [ DW_TAG_subroutine_type ]
!1068 = metadata !{null, metadata !1050, metadata !139}
!1069 = metadata !{i32 786478, i32 0, metadata !1033, metadata !"ap_int_base", metadata !"ap_int_base", metadata !"", metadata !163, i32 1467, metadata !1070, i1 false, i1 false, i32 0, i32 0, null, i32 384, i1 false, null, null, i32 0, metadata !130, i32 1467} ; [ DW_TAG_subprogram ]
!1070 = metadata !{i32 786453, i32 0, metadata !"", i32 0, i32 0, i64 0, i64 0, i64 0, i32 0, null, metadata !1071, i32 0, i32 0} ; [ DW_TAG_subroutine_type ]
!1071 = metadata !{null, metadata !1050, metadata !216}
!1072 = metadata !{i32 786478, i32 0, metadata !1033, metadata !"ap_int_base", metadata !"ap_int_base", metadata !"", metadata !163, i32 1468, metadata !1073, i1 false, i1 false, i32 0, i32 0, null, i32 384, i1 false, null, null, i32 0, metadata !130, i32 1468} ; [ DW_TAG_subprogram ]
!1073 = metadata !{i32 786453, i32 0, metadata !"", i32 0, i32 0, i64 0, i64 0, i64 0, i32 0, null, metadata !1074, i32 0, i32 0} ; [ DW_TAG_subroutine_type ]
!1074 = metadata !{null, metadata !1050, metadata !220}
!1075 = metadata !{i32 786478, i32 0, metadata !1033, metadata !"ap_int_base", metadata !"ap_int_base", metadata !"", metadata !163, i32 1469, metadata !1076, i1 false, i1 false, i32 0, i32 0, null, i32 384, i1 false, null, null, i32 0, metadata !130, i32 1469} ; [ DW_TAG_subprogram ]
!1076 = metadata !{i32 786453, i32 0, metadata !"", i32 0, i32 0, i64 0, i64 0, i64 0, i32 0, null, metadata !1077, i32 0, i32 0} ; [ DW_TAG_subroutine_type ]
!1077 = metadata !{null, metadata !1050, metadata !224}
!1078 = metadata !{i32 786478, i32 0, metadata !1033, metadata !"ap_int_base", metadata !"ap_int_base", metadata !"", metadata !163, i32 1470, metadata !1079, i1 false, i1 false, i32 0, i32 0, null, i32 384, i1 false, null, null, i32 0, metadata !130, i32 1470} ; [ DW_TAG_subprogram ]
!1079 = metadata !{i32 786453, i32 0, metadata !"", i32 0, i32 0, i64 0, i64 0, i64 0, i32 0, null, metadata !1080, i32 0, i32 0} ; [ DW_TAG_subroutine_type ]
!1080 = metadata !{null, metadata !1050, metadata !228}
!1081 = metadata !{i32 786478, i32 0, metadata !1033, metadata !"ap_int_base", metadata !"ap_int_base", metadata !"", metadata !163, i32 1471, metadata !1082, i1 false, i1 false, i32 0, i32 0, null, i32 384, i1 false, null, null, i32 0, metadata !130, i32 1471} ; [ DW_TAG_subprogram ]
!1082 = metadata !{i32 786453, i32 0, metadata !"", i32 0, i32 0, i64 0, i64 0, i64 0, i32 0, null, metadata !1083, i32 0, i32 0} ; [ DW_TAG_subroutine_type ]
!1083 = metadata !{null, metadata !1050, metadata !233}
!1084 = metadata !{i32 786478, i32 0, metadata !1033, metadata !"ap_int_base", metadata !"ap_int_base", metadata !"", metadata !163, i32 1472, metadata !1085, i1 false, i1 false, i32 0, i32 0, null, i32 384, i1 false, null, null, i32 0, metadata !130, i32 1472} ; [ DW_TAG_subprogram ]
!1085 = metadata !{i32 786453, i32 0, metadata !"", i32 0, i32 0, i64 0, i64 0, i64 0, i32 0, null, metadata !1086, i32 0, i32 0} ; [ DW_TAG_subroutine_type ]
!1086 = metadata !{null, metadata !1050, metadata !255}
!1087 = metadata !{i32 786478, i32 0, metadata !1033, metadata !"ap_int_base", metadata !"ap_int_base", metadata !"", metadata !163, i32 1473, metadata !1088, i1 false, i1 false, i32 0, i32 0, null, i32 384, i1 false, null, null, i32 0, metadata !130, i32 1473} ; [ DW_TAG_subprogram ]
!1088 = metadata !{i32 786453, i32 0, metadata !"", i32 0, i32 0, i64 0, i64 0, i64 0, i32 0, null, metadata !1089, i32 0, i32 0} ; [ DW_TAG_subroutine_type ]
!1089 = metadata !{null, metadata !1050, metadata !251}
!1090 = metadata !{i32 786478, i32 0, metadata !1033, metadata !"ap_int_base", metadata !"ap_int_base", metadata !"", metadata !163, i32 1474, metadata !1091, i1 false, i1 false, i32 0, i32 0, null, i32 384, i1 false, null, null, i32 0, metadata !130, i32 1474} ; [ DW_TAG_subprogram ]
!1091 = metadata !{i32 786453, i32 0, metadata !"", i32 0, i32 0, i64 0, i64 0, i64 0, i32 0, null, metadata !1092, i32 0, i32 0} ; [ DW_TAG_subroutine_type ]
!1092 = metadata !{null, metadata !1050, metadata !247}
!1093 = metadata !{i32 786478, i32 0, metadata !1033, metadata !"ap_int_base", metadata !"ap_int_base", metadata !"", metadata !163, i32 1501, metadata !1094, i1 false, i1 false, i32 0, i32 0, null, i32 256, i1 false, null, null, i32 0, metadata !130, i32 1501} ; [ DW_TAG_subprogram ]
!1094 = metadata !{i32 786453, i32 0, metadata !"", i32 0, i32 0, i64 0, i64 0, i64 0, i32 0, null, metadata !1095, i32 0, i32 0} ; [ DW_TAG_subroutine_type ]
!1095 = metadata !{null, metadata !1050, metadata !238}
!1096 = metadata !{i32 786478, i32 0, metadata !1033, metadata !"ap_int_base", metadata !"ap_int_base", metadata !"", metadata !163, i32 1508, metadata !1097, i1 false, i1 false, i32 0, i32 0, null, i32 256, i1 false, null, null, i32 0, metadata !130, i32 1508} ; [ DW_TAG_subprogram ]
!1097 = metadata !{i32 786453, i32 0, metadata !"", i32 0, i32 0, i64 0, i64 0, i64 0, i32 0, null, metadata !1098, i32 0, i32 0} ; [ DW_TAG_subroutine_type ]
!1098 = metadata !{null, metadata !1050, metadata !238, metadata !197}
!1099 = metadata !{i32 786478, i32 0, metadata !1033, metadata !"read", metadata !"read", metadata !"_ZNV11ap_int_baseILi5ELb1ELb1EE4readEv", metadata !163, i32 1529, metadata !1100, i1 false, i1 false, i32 0, i32 0, null, i32 256, i1 false, null, null, i32 0, metadata !130, i32 1529} ; [ DW_TAG_subprogram ]
!1100 = metadata !{i32 786453, i32 0, metadata !"", i32 0, i32 0, i64 0, i64 0, i64 0, i32 0, null, metadata !1101, i32 0, i32 0} ; [ DW_TAG_subroutine_type ]
!1101 = metadata !{metadata !1033, metadata !1102}
!1102 = metadata !{i32 786447, i32 0, metadata !"", i32 0, i32 0, i64 32, i64 32, i64 0, i32 64, metadata !1103} ; [ DW_TAG_pointer_type ]
!1103 = metadata !{i32 786485, null, metadata !"", null, i32 0, i64 0, i64 0, i64 0, i32 0, metadata !1033} ; [ DW_TAG_volatile_type ]
!1104 = metadata !{i32 786478, i32 0, metadata !1033, metadata !"write", metadata !"write", metadata !"_ZNV11ap_int_baseILi5ELb1ELb1EE5writeERKS0_", metadata !163, i32 1535, metadata !1105, i1 false, i1 false, i32 0, i32 0, null, i32 256, i1 false, null, null, i32 0, metadata !130, i32 1535} ; [ DW_TAG_subprogram ]
!1105 = metadata !{i32 786453, i32 0, metadata !"", i32 0, i32 0, i64 0, i64 0, i64 0, i32 0, null, metadata !1106, i32 0, i32 0} ; [ DW_TAG_subroutine_type ]
!1106 = metadata !{null, metadata !1102, metadata !1107}
!1107 = metadata !{i32 786448, null, null, null, i32 0, i64 0, i64 0, i64 0, i32 0, metadata !1108} ; [ DW_TAG_reference_type ]
!1108 = metadata !{i32 786470, null, metadata !"", null, i32 0, i64 0, i64 0, i64 0, i32 0, metadata !1033} ; [ DW_TAG_const_type ]
!1109 = metadata !{i32 786478, i32 0, metadata !1033, metadata !"operator=", metadata !"operator=", metadata !"_ZNV11ap_int_baseILi5ELb1ELb1EEaSERVKS0_", metadata !163, i32 1547, metadata !1110, i1 false, i1 false, i32 0, i32 0, null, i32 256, i1 false, null, null, i32 0, metadata !130, i32 1547} ; [ DW_TAG_subprogram ]
!1110 = metadata !{i32 786453, i32 0, metadata !"", i32 0, i32 0, i64 0, i64 0, i64 0, i32 0, null, metadata !1111, i32 0, i32 0} ; [ DW_TAG_subroutine_type ]
!1111 = metadata !{null, metadata !1102, metadata !1112}
!1112 = metadata !{i32 786448, null, null, null, i32 0, i64 0, i64 0, i64 0, i32 0, metadata !1113} ; [ DW_TAG_reference_type ]
!1113 = metadata !{i32 786470, null, metadata !"", null, i32 0, i64 0, i64 0, i64 0, i32 0, metadata !1103} ; [ DW_TAG_const_type ]
!1114 = metadata !{i32 786478, i32 0, metadata !1033, metadata !"operator=", metadata !"operator=", metadata !"_ZNV11ap_int_baseILi5ELb1ELb1EEaSERKS0_", metadata !163, i32 1556, metadata !1105, i1 false, i1 false, i32 0, i32 0, null, i32 256, i1 false, null, null, i32 0, metadata !130, i32 1556} ; [ DW_TAG_subprogram ]
!1115 = metadata !{i32 786478, i32 0, metadata !1033, metadata !"operator=", metadata !"operator=", metadata !"_ZN11ap_int_baseILi5ELb1ELb1EEaSERVKS0_", metadata !163, i32 1579, metadata !1116, i1 false, i1 false, i32 0, i32 0, null, i32 256, i1 false, null, null, i32 0, metadata !130, i32 1579} ; [ DW_TAG_subprogram ]
!1116 = metadata !{i32 786453, i32 0, metadata !"", i32 0, i32 0, i64 0, i64 0, i64 0, i32 0, null, metadata !1117, i32 0, i32 0} ; [ DW_TAG_subroutine_type ]
!1117 = metadata !{metadata !1118, metadata !1050, metadata !1112}
!1118 = metadata !{i32 786448, null, null, null, i32 0, i64 0, i64 0, i64 0, i32 0, metadata !1033} ; [ DW_TAG_reference_type ]
!1119 = metadata !{i32 786478, i32 0, metadata !1033, metadata !"operator=", metadata !"operator=", metadata !"_ZN11ap_int_baseILi5ELb1ELb1EEaSERKS0_", metadata !163, i32 1584, metadata !1120, i1 false, i1 false, i32 0, i32 0, null, i32 256, i1 false, null, null, i32 0, metadata !130, i32 1584} ; [ DW_TAG_subprogram ]
!1120 = metadata !{i32 786453, i32 0, metadata !"", i32 0, i32 0, i64 0, i64 0, i64 0, i32 0, null, metadata !1121, i32 0, i32 0} ; [ DW_TAG_subroutine_type ]
!1121 = metadata !{metadata !1118, metadata !1050, metadata !1107}
!1122 = metadata !{i32 786478, i32 0, metadata !1033, metadata !"operator=", metadata !"operator=", metadata !"_ZN11ap_int_baseILi5ELb1ELb1EEaSEPKc", metadata !163, i32 1588, metadata !1123, i1 false, i1 false, i32 0, i32 0, null, i32 256, i1 false, null, null, i32 0, metadata !130, i32 1588} ; [ DW_TAG_subprogram ]
!1123 = metadata !{i32 786453, i32 0, metadata !"", i32 0, i32 0, i64 0, i64 0, i64 0, i32 0, null, metadata !1124, i32 0, i32 0} ; [ DW_TAG_subroutine_type ]
!1124 = metadata !{metadata !1118, metadata !1050, metadata !238}
!1125 = metadata !{i32 786478, i32 0, metadata !1033, metadata !"set", metadata !"set", metadata !"_ZN11ap_int_baseILi5ELb1ELb1EE3setEPKca", metadata !163, i32 1596, metadata !1126, i1 false, i1 false, i32 0, i32 0, null, i32 256, i1 false, null, null, i32 0, metadata !130, i32 1596} ; [ DW_TAG_subprogram ]
!1126 = metadata !{i32 786453, i32 0, metadata !"", i32 0, i32 0, i64 0, i64 0, i64 0, i32 0, null, metadata !1127, i32 0, i32 0} ; [ DW_TAG_subroutine_type ]
!1127 = metadata !{metadata !1118, metadata !1050, metadata !238, metadata !197}
!1128 = metadata !{i32 786478, i32 0, metadata !1033, metadata !"operator=", metadata !"operator=", metadata !"_ZN11ap_int_baseILi5ELb1ELb1EEaSEa", metadata !163, i32 1610, metadata !1129, i1 false, i1 false, i32 0, i32 0, null, i32 256, i1 false, null, null, i32 0, metadata !130, i32 1610} ; [ DW_TAG_subprogram ]
!1129 = metadata !{i32 786453, i32 0, metadata !"", i32 0, i32 0, i64 0, i64 0, i64 0, i32 0, null, metadata !1130, i32 0, i32 0} ; [ DW_TAG_subroutine_type ]
!1130 = metadata !{metadata !1118, metadata !1050, metadata !197}
!1131 = metadata !{i32 786478, i32 0, metadata !1033, metadata !"operator=", metadata !"operator=", metadata !"_ZN11ap_int_baseILi5ELb1ELb1EEaSEh", metadata !163, i32 1611, metadata !1132, i1 false, i1 false, i32 0, i32 0, null, i32 256, i1 false, null, null, i32 0, metadata !130, i32 1611} ; [ DW_TAG_subprogram ]
!1132 = metadata !{i32 786453, i32 0, metadata !"", i32 0, i32 0, i64 0, i64 0, i64 0, i32 0, null, metadata !1133, i32 0, i32 0} ; [ DW_TAG_subroutine_type ]
!1133 = metadata !{metadata !1118, metadata !1050, metadata !201}
!1134 = metadata !{i32 786478, i32 0, metadata !1033, metadata !"operator=", metadata !"operator=", metadata !"_ZN11ap_int_baseILi5ELb1ELb1EEaSEs", metadata !163, i32 1612, metadata !1135, i1 false, i1 false, i32 0, i32 0, null, i32 256, i1 false, null, null, i32 0, metadata !130, i32 1612} ; [ DW_TAG_subprogram ]
!1135 = metadata !{i32 786453, i32 0, metadata !"", i32 0, i32 0, i64 0, i64 0, i64 0, i32 0, null, metadata !1136, i32 0, i32 0} ; [ DW_TAG_subroutine_type ]
!1136 = metadata !{metadata !1118, metadata !1050, metadata !205}
!1137 = metadata !{i32 786478, i32 0, metadata !1033, metadata !"operator=", metadata !"operator=", metadata !"_ZN11ap_int_baseILi5ELb1ELb1EEaSEt", metadata !163, i32 1613, metadata !1138, i1 false, i1 false, i32 0, i32 0, null, i32 256, i1 false, null, null, i32 0, metadata !130, i32 1613} ; [ DW_TAG_subprogram ]
!1138 = metadata !{i32 786453, i32 0, metadata !"", i32 0, i32 0, i64 0, i64 0, i64 0, i32 0, null, metadata !1139, i32 0, i32 0} ; [ DW_TAG_subroutine_type ]
!1139 = metadata !{metadata !1118, metadata !1050, metadata !209}
!1140 = metadata !{i32 786478, i32 0, metadata !1033, metadata !"operator=", metadata !"operator=", metadata !"_ZN11ap_int_baseILi5ELb1ELb1EEaSEi", metadata !163, i32 1614, metadata !1141, i1 false, i1 false, i32 0, i32 0, null, i32 256, i1 false, null, null, i32 0, metadata !130, i32 1614} ; [ DW_TAG_subprogram ]
!1141 = metadata !{i32 786453, i32 0, metadata !"", i32 0, i32 0, i64 0, i64 0, i64 0, i32 0, null, metadata !1142, i32 0, i32 0} ; [ DW_TAG_subroutine_type ]
!1142 = metadata !{metadata !1118, metadata !1050, metadata !139}
!1143 = metadata !{i32 786478, i32 0, metadata !1033, metadata !"operator=", metadata !"operator=", metadata !"_ZN11ap_int_baseILi5ELb1ELb1EEaSEj", metadata !163, i32 1615, metadata !1144, i1 false, i1 false, i32 0, i32 0, null, i32 256, i1 false, null, null, i32 0, metadata !130, i32 1615} ; [ DW_TAG_subprogram ]
!1144 = metadata !{i32 786453, i32 0, metadata !"", i32 0, i32 0, i64 0, i64 0, i64 0, i32 0, null, metadata !1145, i32 0, i32 0} ; [ DW_TAG_subroutine_type ]
!1145 = metadata !{metadata !1118, metadata !1050, metadata !216}
!1146 = metadata !{i32 786478, i32 0, metadata !1033, metadata !"operator=", metadata !"operator=", metadata !"_ZN11ap_int_baseILi5ELb1ELb1EEaSEx", metadata !163, i32 1616, metadata !1147, i1 false, i1 false, i32 0, i32 0, null, i32 256, i1 false, null, null, i32 0, metadata !130, i32 1616} ; [ DW_TAG_subprogram ]
!1147 = metadata !{i32 786453, i32 0, metadata !"", i32 0, i32 0, i64 0, i64 0, i64 0, i32 0, null, metadata !1148, i32 0, i32 0} ; [ DW_TAG_subroutine_type ]
!1148 = metadata !{metadata !1118, metadata !1050, metadata !228}
!1149 = metadata !{i32 786478, i32 0, metadata !1033, metadata !"operator=", metadata !"operator=", metadata !"_ZN11ap_int_baseILi5ELb1ELb1EEaSEy", metadata !163, i32 1617, metadata !1150, i1 false, i1 false, i32 0, i32 0, null, i32 256, i1 false, null, null, i32 0, metadata !130, i32 1617} ; [ DW_TAG_subprogram ]
!1150 = metadata !{i32 786453, i32 0, metadata !"", i32 0, i32 0, i64 0, i64 0, i64 0, i32 0, null, metadata !1151, i32 0, i32 0} ; [ DW_TAG_subroutine_type ]
!1151 = metadata !{metadata !1118, metadata !1050, metadata !233}
!1152 = metadata !{i32 786478, i32 0, metadata !1033, metadata !"operator signed char", metadata !"operator signed char", metadata !"_ZNK11ap_int_baseILi5ELb1ELb1EEcvaEv", metadata !163, i32 1655, metadata !1153, i1 false, i1 false, i32 0, i32 0, null, i32 256, i1 false, null, null, i32 0, metadata !130, i32 1655} ; [ DW_TAG_subprogram ]
!1153 = metadata !{i32 786453, i32 0, metadata !"", i32 0, i32 0, i64 0, i64 0, i64 0, i32 0, null, metadata !1154, i32 0, i32 0} ; [ DW_TAG_subroutine_type ]
!1154 = metadata !{metadata !1155, metadata !1159}
!1155 = metadata !{i32 786454, metadata !1033, metadata !"RetType", metadata !163, i32 1403, i64 0, i64 0, i64 0, i32 0, metadata !1156} ; [ DW_TAG_typedef ]
!1156 = metadata !{i32 786454, metadata !1157, metadata !"Type", metadata !163, i32 1368, i64 0, i64 0, i64 0, i32 0, metadata !197} ; [ DW_TAG_typedef ]
!1157 = metadata !{i32 786434, null, metadata !"retval<1, true>", metadata !163, i32 1367, i64 8, i64 8, i32 0, i32 0, null, metadata !435, i32 0, null, metadata !1158} ; [ DW_TAG_class_type ]
!1158 = metadata !{metadata !954, metadata !1046}
!1159 = metadata !{i32 786447, i32 0, metadata !"", i32 0, i32 0, i64 32, i64 32, i64 0, i32 64, metadata !1108} ; [ DW_TAG_pointer_type ]
!1160 = metadata !{i32 786478, i32 0, metadata !1033, metadata !"to_bool", metadata !"to_bool", metadata !"_ZNK11ap_int_baseILi5ELb1ELb1EE7to_boolEv", metadata !163, i32 1661, metadata !1161, i1 false, i1 false, i32 0, i32 0, null, i32 256, i1 false, null, null, i32 0, metadata !130, i32 1661} ; [ DW_TAG_subprogram ]
!1161 = metadata !{i32 786453, i32 0, metadata !"", i32 0, i32 0, i64 0, i64 0, i64 0, i32 0, null, metadata !1162, i32 0, i32 0} ; [ DW_TAG_subroutine_type ]
!1162 = metadata !{metadata !141, metadata !1159}
!1163 = metadata !{i32 786478, i32 0, metadata !1033, metadata !"to_uchar", metadata !"to_uchar", metadata !"_ZNK11ap_int_baseILi5ELb1ELb1EE8to_ucharEv", metadata !163, i32 1662, metadata !1164, i1 false, i1 false, i32 0, i32 0, null, i32 256, i1 false, null, null, i32 0, metadata !130, i32 1662} ; [ DW_TAG_subprogram ]
!1164 = metadata !{i32 786453, i32 0, metadata !"", i32 0, i32 0, i64 0, i64 0, i64 0, i32 0, null, metadata !1165, i32 0, i32 0} ; [ DW_TAG_subroutine_type ]
!1165 = metadata !{metadata !201, metadata !1159}
!1166 = metadata !{i32 786478, i32 0, metadata !1033, metadata !"to_char", metadata !"to_char", metadata !"_ZNK11ap_int_baseILi5ELb1ELb1EE7to_charEv", metadata !163, i32 1663, metadata !1167, i1 false, i1 false, i32 0, i32 0, null, i32 256, i1 false, null, null, i32 0, metadata !130, i32 1663} ; [ DW_TAG_subprogram ]
!1167 = metadata !{i32 786453, i32 0, metadata !"", i32 0, i32 0, i64 0, i64 0, i64 0, i32 0, null, metadata !1168, i32 0, i32 0} ; [ DW_TAG_subroutine_type ]
!1168 = metadata !{metadata !197, metadata !1159}
!1169 = metadata !{i32 786478, i32 0, metadata !1033, metadata !"to_ushort", metadata !"to_ushort", metadata !"_ZNK11ap_int_baseILi5ELb1ELb1EE9to_ushortEv", metadata !163, i32 1664, metadata !1170, i1 false, i1 false, i32 0, i32 0, null, i32 256, i1 false, null, null, i32 0, metadata !130, i32 1664} ; [ DW_TAG_subprogram ]
!1170 = metadata !{i32 786453, i32 0, metadata !"", i32 0, i32 0, i64 0, i64 0, i64 0, i32 0, null, metadata !1171, i32 0, i32 0} ; [ DW_TAG_subroutine_type ]
!1171 = metadata !{metadata !209, metadata !1159}
!1172 = metadata !{i32 786478, i32 0, metadata !1033, metadata !"to_short", metadata !"to_short", metadata !"_ZNK11ap_int_baseILi5ELb1ELb1EE8to_shortEv", metadata !163, i32 1665, metadata !1173, i1 false, i1 false, i32 0, i32 0, null, i32 256, i1 false, null, null, i32 0, metadata !130, i32 1665} ; [ DW_TAG_subprogram ]
!1173 = metadata !{i32 786453, i32 0, metadata !"", i32 0, i32 0, i64 0, i64 0, i64 0, i32 0, null, metadata !1174, i32 0, i32 0} ; [ DW_TAG_subroutine_type ]
!1174 = metadata !{metadata !205, metadata !1159}
!1175 = metadata !{i32 786478, i32 0, metadata !1033, metadata !"to_int", metadata !"to_int", metadata !"_ZNK11ap_int_baseILi5ELb1ELb1EE6to_intEv", metadata !163, i32 1666, metadata !1176, i1 false, i1 false, i32 0, i32 0, null, i32 256, i1 false, null, null, i32 0, metadata !130, i32 1666} ; [ DW_TAG_subprogram ]
!1176 = metadata !{i32 786453, i32 0, metadata !"", i32 0, i32 0, i64 0, i64 0, i64 0, i32 0, null, metadata !1177, i32 0, i32 0} ; [ DW_TAG_subroutine_type ]
!1177 = metadata !{metadata !139, metadata !1159}
!1178 = metadata !{i32 786478, i32 0, metadata !1033, metadata !"to_uint", metadata !"to_uint", metadata !"_ZNK11ap_int_baseILi5ELb1ELb1EE7to_uintEv", metadata !163, i32 1667, metadata !1179, i1 false, i1 false, i32 0, i32 0, null, i32 256, i1 false, null, null, i32 0, metadata !130, i32 1667} ; [ DW_TAG_subprogram ]
!1179 = metadata !{i32 786453, i32 0, metadata !"", i32 0, i32 0, i64 0, i64 0, i64 0, i32 0, null, metadata !1180, i32 0, i32 0} ; [ DW_TAG_subroutine_type ]
!1180 = metadata !{metadata !216, metadata !1159}
!1181 = metadata !{i32 786478, i32 0, metadata !1033, metadata !"to_long", metadata !"to_long", metadata !"_ZNK11ap_int_baseILi5ELb1ELb1EE7to_longEv", metadata !163, i32 1668, metadata !1182, i1 false, i1 false, i32 0, i32 0, null, i32 256, i1 false, null, null, i32 0, metadata !130, i32 1668} ; [ DW_TAG_subprogram ]
!1182 = metadata !{i32 786453, i32 0, metadata !"", i32 0, i32 0, i64 0, i64 0, i64 0, i32 0, null, metadata !1183, i32 0, i32 0} ; [ DW_TAG_subroutine_type ]
!1183 = metadata !{metadata !220, metadata !1159}
!1184 = metadata !{i32 786478, i32 0, metadata !1033, metadata !"to_ulong", metadata !"to_ulong", metadata !"_ZNK11ap_int_baseILi5ELb1ELb1EE8to_ulongEv", metadata !163, i32 1669, metadata !1185, i1 false, i1 false, i32 0, i32 0, null, i32 256, i1 false, null, null, i32 0, metadata !130, i32 1669} ; [ DW_TAG_subprogram ]
!1185 = metadata !{i32 786453, i32 0, metadata !"", i32 0, i32 0, i64 0, i64 0, i64 0, i32 0, null, metadata !1186, i32 0, i32 0} ; [ DW_TAG_subroutine_type ]
!1186 = metadata !{metadata !224, metadata !1159}
!1187 = metadata !{i32 786478, i32 0, metadata !1033, metadata !"to_int64", metadata !"to_int64", metadata !"_ZNK11ap_int_baseILi5ELb1ELb1EE8to_int64Ev", metadata !163, i32 1670, metadata !1188, i1 false, i1 false, i32 0, i32 0, null, i32 256, i1 false, null, null, i32 0, metadata !130, i32 1670} ; [ DW_TAG_subprogram ]
!1188 = metadata !{i32 786453, i32 0, metadata !"", i32 0, i32 0, i64 0, i64 0, i64 0, i32 0, null, metadata !1189, i32 0, i32 0} ; [ DW_TAG_subroutine_type ]
!1189 = metadata !{metadata !228, metadata !1159}
!1190 = metadata !{i32 786478, i32 0, metadata !1033, metadata !"to_uint64", metadata !"to_uint64", metadata !"_ZNK11ap_int_baseILi5ELb1ELb1EE9to_uint64Ev", metadata !163, i32 1671, metadata !1191, i1 false, i1 false, i32 0, i32 0, null, i32 256, i1 false, null, null, i32 0, metadata !130, i32 1671} ; [ DW_TAG_subprogram ]
!1191 = metadata !{i32 786453, i32 0, metadata !"", i32 0, i32 0, i64 0, i64 0, i64 0, i32 0, null, metadata !1192, i32 0, i32 0} ; [ DW_TAG_subroutine_type ]
!1192 = metadata !{metadata !233, metadata !1159}
!1193 = metadata !{i32 786478, i32 0, metadata !1033, metadata !"to_double", metadata !"to_double", metadata !"_ZNK11ap_int_baseILi5ELb1ELb1EE9to_doubleEv", metadata !163, i32 1672, metadata !1194, i1 false, i1 false, i32 0, i32 0, null, i32 256, i1 false, null, null, i32 0, metadata !130, i32 1672} ; [ DW_TAG_subprogram ]
!1194 = metadata !{i32 786453, i32 0, metadata !"", i32 0, i32 0, i64 0, i64 0, i64 0, i32 0, null, metadata !1195, i32 0, i32 0} ; [ DW_TAG_subroutine_type ]
!1195 = metadata !{metadata !247, metadata !1159}
!1196 = metadata !{i32 786478, i32 0, metadata !1033, metadata !"length", metadata !"length", metadata !"_ZNK11ap_int_baseILi5ELb1ELb1EE6lengthEv", metadata !163, i32 1686, metadata !1176, i1 false, i1 false, i32 0, i32 0, null, i32 256, i1 false, null, null, i32 0, metadata !130, i32 1686} ; [ DW_TAG_subprogram ]
!1197 = metadata !{i32 786478, i32 0, metadata !1033, metadata !"length", metadata !"length", metadata !"_ZNVK11ap_int_baseILi5ELb1ELb1EE6lengthEv", metadata !163, i32 1687, metadata !1198, i1 false, i1 false, i32 0, i32 0, null, i32 256, i1 false, null, null, i32 0, metadata !130, i32 1687} ; [ DW_TAG_subprogram ]
!1198 = metadata !{i32 786453, i32 0, metadata !"", i32 0, i32 0, i64 0, i64 0, i64 0, i32 0, null, metadata !1199, i32 0, i32 0} ; [ DW_TAG_subroutine_type ]
!1199 = metadata !{metadata !139, metadata !1200}
!1200 = metadata !{i32 786447, i32 0, metadata !"", i32 0, i32 0, i64 32, i64 32, i64 0, i32 64, metadata !1113} ; [ DW_TAG_pointer_type ]
!1201 = metadata !{i32 786478, i32 0, metadata !1033, metadata !"reverse", metadata !"reverse", metadata !"_ZN11ap_int_baseILi5ELb1ELb1EE7reverseEv", metadata !163, i32 1692, metadata !1202, i1 false, i1 false, i32 0, i32 0, null, i32 256, i1 false, null, null, i32 0, metadata !130, i32 1692} ; [ DW_TAG_subprogram ]
!1202 = metadata !{i32 786453, i32 0, metadata !"", i32 0, i32 0, i64 0, i64 0, i64 0, i32 0, null, metadata !1203, i32 0, i32 0} ; [ DW_TAG_subroutine_type ]
!1203 = metadata !{metadata !1118, metadata !1050}
!1204 = metadata !{i32 786478, i32 0, metadata !1033, metadata !"iszero", metadata !"iszero", metadata !"_ZNK11ap_int_baseILi5ELb1ELb1EE6iszeroEv", metadata !163, i32 1698, metadata !1161, i1 false, i1 false, i32 0, i32 0, null, i32 256, i1 false, null, null, i32 0, metadata !130, i32 1698} ; [ DW_TAG_subprogram ]
!1205 = metadata !{i32 786478, i32 0, metadata !1033, metadata !"is_zero", metadata !"is_zero", metadata !"_ZNK11ap_int_baseILi5ELb1ELb1EE7is_zeroEv", metadata !163, i32 1703, metadata !1161, i1 false, i1 false, i32 0, i32 0, null, i32 256, i1 false, null, null, i32 0, metadata !130, i32 1703} ; [ DW_TAG_subprogram ]
!1206 = metadata !{i32 786478, i32 0, metadata !1033, metadata !"sign", metadata !"sign", metadata !"_ZNK11ap_int_baseILi5ELb1ELb1EE4signEv", metadata !163, i32 1708, metadata !1161, i1 false, i1 false, i32 0, i32 0, null, i32 256, i1 false, null, null, i32 0, metadata !130, i32 1708} ; [ DW_TAG_subprogram ]
!1207 = metadata !{i32 786478, i32 0, metadata !1033, metadata !"clear", metadata !"clear", metadata !"_ZN11ap_int_baseILi5ELb1ELb1EE5clearEi", metadata !163, i32 1716, metadata !1067, i1 false, i1 false, i32 0, i32 0, null, i32 256, i1 false, null, null, i32 0, metadata !130, i32 1716} ; [ DW_TAG_subprogram ]
!1208 = metadata !{i32 786478, i32 0, metadata !1033, metadata !"invert", metadata !"invert", metadata !"_ZN11ap_int_baseILi5ELb1ELb1EE6invertEi", metadata !163, i32 1722, metadata !1067, i1 false, i1 false, i32 0, i32 0, null, i32 256, i1 false, null, null, i32 0, metadata !130, i32 1722} ; [ DW_TAG_subprogram ]
!1209 = metadata !{i32 786478, i32 0, metadata !1033, metadata !"test", metadata !"test", metadata !"_ZNK11ap_int_baseILi5ELb1ELb1EE4testEi", metadata !163, i32 1730, metadata !1210, i1 false, i1 false, i32 0, i32 0, null, i32 256, i1 false, null, null, i32 0, metadata !130, i32 1730} ; [ DW_TAG_subprogram ]
!1210 = metadata !{i32 786453, i32 0, metadata !"", i32 0, i32 0, i64 0, i64 0, i64 0, i32 0, null, metadata !1211, i32 0, i32 0} ; [ DW_TAG_subroutine_type ]
!1211 = metadata !{metadata !141, metadata !1159, metadata !139}
!1212 = metadata !{i32 786478, i32 0, metadata !1033, metadata !"set", metadata !"set", metadata !"_ZN11ap_int_baseILi5ELb1ELb1EE3setEi", metadata !163, i32 1736, metadata !1067, i1 false, i1 false, i32 0, i32 0, null, i32 256, i1 false, null, null, i32 0, metadata !130, i32 1736} ; [ DW_TAG_subprogram ]
!1213 = metadata !{i32 786478, i32 0, metadata !1033, metadata !"set", metadata !"set", metadata !"_ZN11ap_int_baseILi5ELb1ELb1EE3setEib", metadata !163, i32 1742, metadata !1214, i1 false, i1 false, i32 0, i32 0, null, i32 256, i1 false, null, null, i32 0, metadata !130, i32 1742} ; [ DW_TAG_subprogram ]
!1214 = metadata !{i32 786453, i32 0, metadata !"", i32 0, i32 0, i64 0, i64 0, i64 0, i32 0, null, metadata !1215, i32 0, i32 0} ; [ DW_TAG_subroutine_type ]
!1215 = metadata !{null, metadata !1050, metadata !139, metadata !141}
!1216 = metadata !{i32 786478, i32 0, metadata !1033, metadata !"lrotate", metadata !"lrotate", metadata !"_ZN11ap_int_baseILi5ELb1ELb1EE7lrotateEi", metadata !163, i32 1749, metadata !1067, i1 false, i1 false, i32 0, i32 0, null, i32 256, i1 false, null, null, i32 0, metadata !130, i32 1749} ; [ DW_TAG_subprogram ]
!1217 = metadata !{i32 786478, i32 0, metadata !1033, metadata !"rrotate", metadata !"rrotate", metadata !"_ZN11ap_int_baseILi5ELb1ELb1EE7rrotateEi", metadata !163, i32 1758, metadata !1067, i1 false, i1 false, i32 0, i32 0, null, i32 256, i1 false, null, null, i32 0, metadata !130, i32 1758} ; [ DW_TAG_subprogram ]
!1218 = metadata !{i32 786478, i32 0, metadata !1033, metadata !"set_bit", metadata !"set_bit", metadata !"_ZN11ap_int_baseILi5ELb1ELb1EE7set_bitEib", metadata !163, i32 1766, metadata !1214, i1 false, i1 false, i32 0, i32 0, null, i32 256, i1 false, null, null, i32 0, metadata !130, i32 1766} ; [ DW_TAG_subprogram ]
!1219 = metadata !{i32 786478, i32 0, metadata !1033, metadata !"get_bit", metadata !"get_bit", metadata !"_ZNK11ap_int_baseILi5ELb1ELb1EE7get_bitEi", metadata !163, i32 1771, metadata !1210, i1 false, i1 false, i32 0, i32 0, null, i32 256, i1 false, null, null, i32 0, metadata !130, i32 1771} ; [ DW_TAG_subprogram ]
!1220 = metadata !{i32 786478, i32 0, metadata !1033, metadata !"b_not", metadata !"b_not", metadata !"_ZN11ap_int_baseILi5ELb1ELb1EE5b_notEv", metadata !163, i32 1776, metadata !1048, i1 false, i1 false, i32 0, i32 0, null, i32 256, i1 false, null, null, i32 0, metadata !130, i32 1776} ; [ DW_TAG_subprogram ]
!1221 = metadata !{i32 786478, i32 0, metadata !1033, metadata !"countLeadingZeros", metadata !"countLeadingZeros", metadata !"_ZN11ap_int_baseILi5ELb1ELb1EE17countLeadingZerosEv", metadata !163, i32 1783, metadata !1222, i1 false, i1 false, i32 0, i32 0, null, i32 256, i1 false, null, null, i32 0, metadata !130, i32 1783} ; [ DW_TAG_subprogram ]
!1222 = metadata !{i32 786453, i32 0, metadata !"", i32 0, i32 0, i64 0, i64 0, i64 0, i32 0, null, metadata !1223, i32 0, i32 0} ; [ DW_TAG_subroutine_type ]
!1223 = metadata !{metadata !139, metadata !1050}
!1224 = metadata !{i32 786478, i32 0, metadata !1033, metadata !"operator++", metadata !"operator++", metadata !"_ZN11ap_int_baseILi5ELb1ELb1EEppEv", metadata !163, i32 1840, metadata !1202, i1 false, i1 false, i32 0, i32 0, null, i32 256, i1 false, null, null, i32 0, metadata !130, i32 1840} ; [ DW_TAG_subprogram ]
!1225 = metadata !{i32 786478, i32 0, metadata !1033, metadata !"operator--", metadata !"operator--", metadata !"_ZN11ap_int_baseILi5ELb1ELb1EEmmEv", metadata !163, i32 1844, metadata !1202, i1 false, i1 false, i32 0, i32 0, null, i32 256, i1 false, null, null, i32 0, metadata !130, i32 1844} ; [ DW_TAG_subprogram ]
!1226 = metadata !{i32 786478, i32 0, metadata !1033, metadata !"operator++", metadata !"operator++", metadata !"_ZN11ap_int_baseILi5ELb1ELb1EEppEi", metadata !163, i32 1852, metadata !1227, i1 false, i1 false, i32 0, i32 0, null, i32 256, i1 false, null, null, i32 0, metadata !130, i32 1852} ; [ DW_TAG_subprogram ]
!1227 = metadata !{i32 786453, i32 0, metadata !"", i32 0, i32 0, i64 0, i64 0, i64 0, i32 0, null, metadata !1228, i32 0, i32 0} ; [ DW_TAG_subroutine_type ]
!1228 = metadata !{metadata !1108, metadata !1050, metadata !139}
!1229 = metadata !{i32 786478, i32 0, metadata !1033, metadata !"operator--", metadata !"operator--", metadata !"_ZN11ap_int_baseILi5ELb1ELb1EEmmEi", metadata !163, i32 1857, metadata !1227, i1 false, i1 false, i32 0, i32 0, null, i32 256, i1 false, null, null, i32 0, metadata !130, i32 1857} ; [ DW_TAG_subprogram ]
!1230 = metadata !{i32 786478, i32 0, metadata !1033, metadata !"operator+", metadata !"operator+", metadata !"_ZNK11ap_int_baseILi5ELb1ELb1EEpsEv", metadata !163, i32 1866, metadata !1231, i1 false, i1 false, i32 0, i32 0, null, i32 256, i1 false, null, null, i32 0, metadata !130, i32 1866} ; [ DW_TAG_subprogram ]
!1231 = metadata !{i32 786453, i32 0, metadata !"", i32 0, i32 0, i64 0, i64 0, i64 0, i32 0, null, metadata !1232, i32 0, i32 0} ; [ DW_TAG_subroutine_type ]
!1232 = metadata !{metadata !1033, metadata !1159}
!1233 = metadata !{i32 786478, i32 0, metadata !1033, metadata !"operator!", metadata !"operator!", metadata !"_ZNK11ap_int_baseILi5ELb1ELb1EEntEv", metadata !163, i32 1872, metadata !1161, i1 false, i1 false, i32 0, i32 0, null, i32 256, i1 false, null, null, i32 0, metadata !130, i32 1872} ; [ DW_TAG_subprogram ]
!1234 = metadata !{i32 786478, i32 0, metadata !1033, metadata !"operator-", metadata !"operator-", metadata !"_ZNK11ap_int_baseILi5ELb1ELb1EEngEv", metadata !163, i32 1877, metadata !1235, i1 false, i1 false, i32 0, i32 0, null, i32 256, i1 false, null, null, i32 0, metadata !130, i32 1877} ; [ DW_TAG_subprogram ]
!1235 = metadata !{i32 786453, i32 0, metadata !"", i32 0, i32 0, i64 0, i64 0, i64 0, i32 0, null, metadata !1236, i32 0, i32 0} ; [ DW_TAG_subroutine_type ]
!1236 = metadata !{metadata !1237, metadata !1159}
!1237 = metadata !{i32 786434, null, metadata !"ap_int_base<6, true, true>", metadata !163, i32 651, i32 0, i32 0, i32 0, i32 4, null, null, i32 0} ; [ DW_TAG_class_type ]
!1238 = metadata !{i32 786478, i32 0, metadata !1033, metadata !"range", metadata !"range", metadata !"_ZN11ap_int_baseILi5ELb1ELb1EE5rangeEii", metadata !163, i32 2007, metadata !1239, i1 false, i1 false, i32 0, i32 0, null, i32 256, i1 false, null, null, i32 0, metadata !130, i32 2007} ; [ DW_TAG_subprogram ]
!1239 = metadata !{i32 786453, i32 0, metadata !"", i32 0, i32 0, i64 0, i64 0, i64 0, i32 0, null, metadata !1240, i32 0, i32 0} ; [ DW_TAG_subroutine_type ]
!1240 = metadata !{metadata !1241, metadata !1050, metadata !139, metadata !139}
!1241 = metadata !{i32 786434, null, metadata !"ap_range_ref<5, true>", metadata !163, i32 924, i32 0, i32 0, i32 0, i32 4, null, null, i32 0} ; [ DW_TAG_class_type ]
!1242 = metadata !{i32 786478, i32 0, metadata !1033, metadata !"operator()", metadata !"operator()", metadata !"_ZN11ap_int_baseILi5ELb1ELb1EEclEii", metadata !163, i32 2013, metadata !1239, i1 false, i1 false, i32 0, i32 0, null, i32 256, i1 false, null, null, i32 0, metadata !130, i32 2013} ; [ DW_TAG_subprogram ]
!1243 = metadata !{i32 786478, i32 0, metadata !1033, metadata !"range", metadata !"range", metadata !"_ZNK11ap_int_baseILi5ELb1ELb1EE5rangeEii", metadata !163, i32 2019, metadata !1244, i1 false, i1 false, i32 0, i32 0, null, i32 256, i1 false, null, null, i32 0, metadata !130, i32 2019} ; [ DW_TAG_subprogram ]
!1244 = metadata !{i32 786453, i32 0, metadata !"", i32 0, i32 0, i64 0, i64 0, i64 0, i32 0, null, metadata !1245, i32 0, i32 0} ; [ DW_TAG_subroutine_type ]
!1245 = metadata !{metadata !1241, metadata !1159, metadata !139, metadata !139}
!1246 = metadata !{i32 786478, i32 0, metadata !1033, metadata !"operator()", metadata !"operator()", metadata !"_ZNK11ap_int_baseILi5ELb1ELb1EEclEii", metadata !163, i32 2025, metadata !1244, i1 false, i1 false, i32 0, i32 0, null, i32 256, i1 false, null, null, i32 0, metadata !130, i32 2025} ; [ DW_TAG_subprogram ]
!1247 = metadata !{i32 786478, i32 0, metadata !1033, metadata !"operator[]", metadata !"operator[]", metadata !"_ZN11ap_int_baseILi5ELb1ELb1EEixEi", metadata !163, i32 2044, metadata !1248, i1 false, i1 false, i32 0, i32 0, null, i32 256, i1 false, null, null, i32 0, metadata !130, i32 2044} ; [ DW_TAG_subprogram ]
!1248 = metadata !{i32 786453, i32 0, metadata !"", i32 0, i32 0, i64 0, i64 0, i64 0, i32 0, null, metadata !1249, i32 0, i32 0} ; [ DW_TAG_subroutine_type ]
!1249 = metadata !{metadata !1250, metadata !1050, metadata !139}
!1250 = metadata !{i32 786434, null, metadata !"ap_bit_ref<5, true>", metadata !163, i32 1194, i32 0, i32 0, i32 0, i32 4, null, null, i32 0} ; [ DW_TAG_class_type ]
!1251 = metadata !{i32 786478, i32 0, metadata !1033, metadata !"operator[]", metadata !"operator[]", metadata !"_ZNK11ap_int_baseILi5ELb1ELb1EEixEi", metadata !163, i32 2058, metadata !1210, i1 false, i1 false, i32 0, i32 0, null, i32 256, i1 false, null, null, i32 0, metadata !130, i32 2058} ; [ DW_TAG_subprogram ]
!1252 = metadata !{i32 786478, i32 0, metadata !1033, metadata !"bit", metadata !"bit", metadata !"_ZN11ap_int_baseILi5ELb1ELb1EE3bitEi", metadata !163, i32 2072, metadata !1248, i1 false, i1 false, i32 0, i32 0, null, i32 256, i1 false, null, null, i32 0, metadata !130, i32 2072} ; [ DW_TAG_subprogram ]
!1253 = metadata !{i32 786478, i32 0, metadata !1033, metadata !"bit", metadata !"bit", metadata !"_ZNK11ap_int_baseILi5ELb1ELb1EE3bitEi", metadata !163, i32 2086, metadata !1210, i1 false, i1 false, i32 0, i32 0, null, i32 256, i1 false, null, null, i32 0, metadata !130, i32 2086} ; [ DW_TAG_subprogram ]
!1254 = metadata !{i32 786478, i32 0, metadata !1033, metadata !"and_reduce", metadata !"and_reduce", metadata !"_ZN11ap_int_baseILi5ELb1ELb1EE10and_reduceEv", metadata !163, i32 2266, metadata !1255, i1 false, i1 false, i32 0, i32 0, null, i32 256, i1 false, null, null, i32 0, metadata !130, i32 2266} ; [ DW_TAG_subprogram ]
!1255 = metadata !{i32 786453, i32 0, metadata !"", i32 0, i32 0, i64 0, i64 0, i64 0, i32 0, null, metadata !1256, i32 0, i32 0} ; [ DW_TAG_subroutine_type ]
!1256 = metadata !{metadata !141, metadata !1050}
!1257 = metadata !{i32 786478, i32 0, metadata !1033, metadata !"nand_reduce", metadata !"nand_reduce", metadata !"_ZN11ap_int_baseILi5ELb1ELb1EE11nand_reduceEv", metadata !163, i32 2269, metadata !1255, i1 false, i1 false, i32 0, i32 0, null, i32 256, i1 false, null, null, i32 0, metadata !130, i32 2269} ; [ DW_TAG_subprogram ]
!1258 = metadata !{i32 786478, i32 0, metadata !1033, metadata !"or_reduce", metadata !"or_reduce", metadata !"_ZN11ap_int_baseILi5ELb1ELb1EE9or_reduceEv", metadata !163, i32 2272, metadata !1255, i1 false, i1 false, i32 0, i32 0, null, i32 256, i1 false, null, null, i32 0, metadata !130, i32 2272} ; [ DW_TAG_subprogram ]
!1259 = metadata !{i32 786478, i32 0, metadata !1033, metadata !"nor_reduce", metadata !"nor_reduce", metadata !"_ZN11ap_int_baseILi5ELb1ELb1EE10nor_reduceEv", metadata !163, i32 2275, metadata !1255, i1 false, i1 false, i32 0, i32 0, null, i32 256, i1 false, null, null, i32 0, metadata !130, i32 2275} ; [ DW_TAG_subprogram ]
!1260 = metadata !{i32 786478, i32 0, metadata !1033, metadata !"xor_reduce", metadata !"xor_reduce", metadata !"_ZN11ap_int_baseILi5ELb1ELb1EE10xor_reduceEv", metadata !163, i32 2278, metadata !1255, i1 false, i1 false, i32 0, i32 0, null, i32 256, i1 false, null, null, i32 0, metadata !130, i32 2278} ; [ DW_TAG_subprogram ]
!1261 = metadata !{i32 786478, i32 0, metadata !1033, metadata !"xnor_reduce", metadata !"xnor_reduce", metadata !"_ZN11ap_int_baseILi5ELb1ELb1EE11xnor_reduceEv", metadata !163, i32 2281, metadata !1255, i1 false, i1 false, i32 0, i32 0, null, i32 256, i1 false, null, null, i32 0, metadata !130, i32 2281} ; [ DW_TAG_subprogram ]
!1262 = metadata !{i32 786478, i32 0, metadata !1033, metadata !"and_reduce", metadata !"and_reduce", metadata !"_ZNK11ap_int_baseILi5ELb1ELb1EE10and_reduceEv", metadata !163, i32 2285, metadata !1161, i1 false, i1 false, i32 0, i32 0, null, i32 256, i1 false, null, null, i32 0, metadata !130, i32 2285} ; [ DW_TAG_subprogram ]
!1263 = metadata !{i32 786478, i32 0, metadata !1033, metadata !"nand_reduce", metadata !"nand_reduce", metadata !"_ZNK11ap_int_baseILi5ELb1ELb1EE11nand_reduceEv", metadata !163, i32 2288, metadata !1161, i1 false, i1 false, i32 0, i32 0, null, i32 256, i1 false, null, null, i32 0, metadata !130, i32 2288} ; [ DW_TAG_subprogram ]
!1264 = metadata !{i32 786478, i32 0, metadata !1033, metadata !"or_reduce", metadata !"or_reduce", metadata !"_ZNK11ap_int_baseILi5ELb1ELb1EE9or_reduceEv", metadata !163, i32 2291, metadata !1161, i1 false, i1 false, i32 0, i32 0, null, i32 256, i1 false, null, null, i32 0, metadata !130, i32 2291} ; [ DW_TAG_subprogram ]
!1265 = metadata !{i32 786478, i32 0, metadata !1033, metadata !"nor_reduce", metadata !"nor_reduce", metadata !"_ZNK11ap_int_baseILi5ELb1ELb1EE10nor_reduceEv", metadata !163, i32 2294, metadata !1161, i1 false, i1 false, i32 0, i32 0, null, i32 256, i1 false, null, null, i32 0, metadata !130, i32 2294} ; [ DW_TAG_subprogram ]
!1266 = metadata !{i32 786478, i32 0, metadata !1033, metadata !"xor_reduce", metadata !"xor_reduce", metadata !"_ZNK11ap_int_baseILi5ELb1ELb1EE10xor_reduceEv", metadata !163, i32 2297, metadata !1161, i1 false, i1 false, i32 0, i32 0, null, i32 256, i1 false, null, null, i32 0, metadata !130, i32 2297} ; [ DW_TAG_subprogram ]
!1267 = metadata !{i32 786478, i32 0, metadata !1033, metadata !"xnor_reduce", metadata !"xnor_reduce", metadata !"_ZNK11ap_int_baseILi5ELb1ELb1EE11xnor_reduceEv", metadata !163, i32 2300, metadata !1161, i1 false, i1 false, i32 0, i32 0, null, i32 256, i1 false, null, null, i32 0, metadata !130, i32 2300} ; [ DW_TAG_subprogram ]
!1268 = metadata !{i32 786478, i32 0, metadata !1033, metadata !"to_string", metadata !"to_string", metadata !"_ZNK11ap_int_baseILi5ELb1ELb1EE9to_stringEPci8BaseModeb", metadata !163, i32 2307, metadata !1269, i1 false, i1 false, i32 0, i32 0, null, i32 256, i1 false, null, null, i32 0, metadata !130, i32 2307} ; [ DW_TAG_subprogram ]
!1269 = metadata !{i32 786453, i32 0, metadata !"", i32 0, i32 0, i64 0, i64 0, i64 0, i32 0, null, metadata !1270, i32 0, i32 0} ; [ DW_TAG_subroutine_type ]
!1270 = metadata !{null, metadata !1159, metadata !550, metadata !139, metadata !551, metadata !141}
!1271 = metadata !{i32 786478, i32 0, metadata !1033, metadata !"to_string", metadata !"to_string", metadata !"_ZNK11ap_int_baseILi5ELb1ELb1EE9to_stringE8BaseModeb", metadata !163, i32 2334, metadata !1272, i1 false, i1 false, i32 0, i32 0, null, i32 256, i1 false, null, null, i32 0, metadata !130, i32 2334} ; [ DW_TAG_subprogram ]
!1272 = metadata !{i32 786453, i32 0, metadata !"", i32 0, i32 0, i64 0, i64 0, i64 0, i32 0, null, metadata !1273, i32 0, i32 0} ; [ DW_TAG_subroutine_type ]
!1273 = metadata !{metadata !550, metadata !1159, metadata !551, metadata !141}
!1274 = metadata !{i32 786478, i32 0, metadata !1033, metadata !"to_string", metadata !"to_string", metadata !"_ZNK11ap_int_baseILi5ELb1ELb1EE9to_stringEab", metadata !163, i32 2338, metadata !1275, i1 false, i1 false, i32 0, i32 0, null, i32 256, i1 false, null, null, i32 0, metadata !130, i32 2338} ; [ DW_TAG_subprogram ]
!1275 = metadata !{i32 786453, i32 0, metadata !"", i32 0, i32 0, i64 0, i64 0, i64 0, i32 0, null, metadata !1276, i32 0, i32 0} ; [ DW_TAG_subroutine_type ]
!1276 = metadata !{metadata !550, metadata !1159, metadata !197, metadata !141}
!1277 = metadata !{metadata !1278, metadata !1046, metadata !567}
!1278 = metadata !{i32 786480, null, metadata !"_AP_W", metadata !139, i64 5, null, i32 0, i32 0} ; [ DW_TAG_template_value_parameter ]
